edid-decode (hex):

00 ff ff ff ff ff ff 00 30 e4 de 01 00 00 00 00
00 12 01 03 80 26 15 78 0a a8 c0 9d 58 50 9a 26
1c 50 54 00 00 00 01 01 01 01 01 01 01 01 01 01
01 01 01 01 01 01 2f 26 40 b8 60 84 0c 30 30 30
23 00 7e d7 10 00 00 19 00 00 00 00 00 00 00 00
00 00 00 00 00 00 00 00 00 00 00 00 00 fe 00 00
00 00 4c 47 44 69 73 70 6c 61 79 0a 00 00 00 fe
00 4c 50 31 37 33 57 44 31 2d 54 4c 44 31 00 61

----------------

Block 0, Base EDID:
  EDID Structure Version & Revision: 1.3
  Vendor & Product Identification:
    Manufacturer: LGD
    Model: 478
    Made in: 2008
  Basic Display Parameters & Features:
    Digital display
    Maximum image size: 38 cm x 21 cm
    Gamma: 2.20
    RGB color display
    First detailed timing is preferred timing
  Color Characteristics:
    Red  : 0.6152, 0.3457
    Green: 0.3144, 0.6015
    Blue : 0.1513, 0.1093
    White: 0.3125, 0.3281
  Established Timings I & II: none
  Standard Timings: none
  Detailed Timing Descriptors:
    DTD 1:  1600x900    60.080 Hz  16:9    54.793 kHz  97.750 MHz (382 mm x 215 mm)
                 Hfront   48 Hsync  48 Hback  88 Hpol N
                 Vfront    2 Vsync   3 Vback   7 Vpol N
    Empty Descriptor
    Alphanumeric Data String: ''
    Alphanumeric Data String: 'LP173WD1-TLD1'
Checksum: 0x61
