edid-decode (hex):

00 ff ff ff ff ff ff 00 4c 83 48 4c 00 00 00 00
00 17 01 04 95 1f 11 78 0a 36 25 93 56 55 93 29
1d 50 54 00 00 00 01 01 01 01 01 01 01 01 01 01
01 01 01 01 01 01 60 39 80 dc 70 38 40 40 30 20
25 00 35 ae 10 00 00 1a e7 2d 80 dc 70 38 40 40
30 20 25 00 35 ae 10 00 00 1a 00 00 00 fe 00 47
54 4b 44 59 80 31 34 30 48 4c 0a 20 00 00 00 00
00 00 41 21 94 00 10 00 00 02 01 0a 20 20 00 ba

----------------

Block 0, Base EDID:
  EDID Structure Version & Revision: 1.4
  Vendor & Product Identification:
    Manufacturer: SDC
    Model: 19528
    Made in: 2013
  Basic Display Parameters & Features:
    Digital display
    Bits per primary color channel: 6
    DisplayPort interface
    Maximum image size: 31 cm x 17 cm
    Gamma: 2.20
    Supported color formats: RGB 4:4:4, YCrCb 4:4:4
    First detailed timing includes the native pixel format and preferred refresh rate
  Color Characteristics:
    Red  : 0.5742, 0.3388
    Green: 0.3330, 0.5761
    Blue : 0.1601, 0.1152
    White: 0.3134, 0.3291
  Established Timings I & II: none
  Standard Timings: none
  Detailed Timing Descriptors:
    DTD 1:  1920x1080   59.996 Hz  16:9    68.636 kHz 146.880 MHz (309 mm x 174 mm)
                 Hfront   48 Hsync  32 Hback 140 Hpol P
                 Vfront    2 Vsync   5 Vback  57 Vpol N
    DTD 2:  1920x1080   47.999 Hz  16:9    54.911 kHz 117.510 MHz (309 mm x 174 mm)
                 Hfront   48 Hsync  32 Hback 140 Hpol P
                 Vfront    2 Vsync   5 Vback  57 Vpol N
    Alphanumeric Data String: 'GTKDY'
    Manufacturer-Specified Display Descriptor (0x00): 00 00 00 00 41 21 94 00 10 00 00 02 01 0a 20 20 '....A!........  '
Checksum: 0xba
