edid-decode (hex):

00 ff ff ff ff ff ff 00 4c 83 48 4c 00 00 00 00
00 18 01 04 95 1d 10 78 0a ee 25 a3 54 4c 99 29
26 50 54 00 00 00 01 01 01 01 01 01 01 01 01 01
01 01 01 01 01 01 d2 37 80 a2 70 38 40 40 30 20
25 00 25 a5 10 00 00 1a a6 2c 80 a2 70 38 40 40
30 20 25 00 25 a5 10 00 00 1a 00 00 00 fe 00 39
54 37 57 4d 80 31 33 33 48 4c 0a 20 00 00 00 00
00 00 41 21 a4 00 10 00 00 0a 01 0a 20 20 00 69

----------------

Block 0, Base EDID:
  EDID Structure Version & Revision: 1.4
  Vendor & Product Identification:
    Manufacturer: SDC
    Model: 19528
    Made in: 2014
  Basic Display Parameters & Features:
    Digital display
    Bits per primary color channel: 6
    DisplayPort interface
    Maximum image size: 29 cm x 16 cm
    Gamma: 2.20
    Supported color formats: RGB 4:4:4, YCrCb 4:4:4
    First detailed timing includes the native pixel format and preferred refresh rate
  Color Characteristics:
    Red  : 0.6396, 0.3300
    Green: 0.2998, 0.5996
    Blue : 0.1601, 0.1503
    White: 0.3134, 0.3291
  Established Timings I & II: none
  Standard Timings: none
  Detailed Timing Descriptors:
    DTD 1:  1920x1080   59.996 Hz  16:9    68.636 kHz 142.900 MHz (293 mm x 165 mm)
                 Hfront   48 Hsync  32 Hback  82 Hpol P
                 Vfront    2 Vsync   5 Vback  57 Vpol N
    DTD 2:  1920x1080   47.989 Hz  16:9    54.899 kHz 114.300 MHz (293 mm x 165 mm)
                 Hfront   48 Hsync  32 Hback  82 Hpol P
                 Vfront    2 Vsync   5 Vback  57 Vpol N
    Alphanumeric Data String: '9T7WM'
    Manufacturer-Specified Display Descriptor (0x00): 00 00 00 00 41 21 a4 00 10 00 00 0a 01 0a 20 20 '....A!........  '
Checksum: 0x69
