edid-decode (hex):

00 ff ff ff ff ff ff 00 06 af 5c 10 00 00 00 00
00 1c 01 04 95 1a 0e 78 02 6b f5 91 55 54 91 27
22 50 54 00 00 00 01 01 01 01 01 01 01 01 01 01
01 01 01 01 01 01 89 1d 56 d0 50 00 20 30 28 20
36 00 00 90 10 00 00 1a a1 17 56 d0 50 00 20 30
28 20 36 00 00 90 10 00 00 1a 00 00 00 fe 00 32
47 35 56 4e 80 42 31 31 36 58 54 4b 00 00 00 00
00 00 41 22 96 01 11 00 00 09 01 0a 20 20 00 0b

00 ff ff ff ff ff ff 00 06 af 5c 10 00 00 00 00
00 1c 01 04 95 1a 0e 78 02 6b f5 91 55 54 91 27
22 50 54 00 00 00 01 01 01 01 01 01 01 01 01 01
01 01 01 01 01 01 89 1d 56 d0 50 00 20 30 28 20
36 00 00 90 10 00 00 1a a1 17 56 d0 50 00 20 30
28 20 36 00 00 90 10 00 00 1a 00 00 00 fe 00 32
47 35 56 4e 80 42 31 31 36 58 54 4b 00 00 00 00
00 00 41 22 96 01 11 00 00 09 01 0a 20 20 00 0b

----------------

Block 0, Base EDID:
  EDID Structure Version & Revision: 1.4
  Vendor & Product Identification:
    Manufacturer: AUO
    Model: 4188
    Made in: 2018
  Basic Display Parameters & Features:
    Digital display
    Bits per primary color channel: 6
    DisplayPort interface
    Maximum image size: 26 cm x 14 cm
    Gamma: 2.20
    Supported color formats: RGB 4:4:4
    First detailed timing includes the native pixel format and preferred refresh rate
  Color Characteristics:
    Red  : 0.5673, 0.3339
    Green: 0.3300, 0.5693
    Blue : 0.1552, 0.1357
    White: 0.3134, 0.3291
  Established Timings I & II: none
  Standard Timings: none
  Detailed Timing Descriptors:
    DTD 1:  1366x768    60.046061 Hz 683:384   48.037 kHz     75.610000 MHz (256 mm x 144 mm)
                 Hfront   40 Hsync  32 Hback  136 Hpol P
                 Vfront    3 Vsync   6 Vback   23 Vpol N
    DTD 2:  1366x768    48.038437 Hz 683:384   38.431 kHz     60.490000 MHz (256 mm x 144 mm)
                 Hfront   40 Hsync  32 Hback  136 Hpol P
                 Vfront    3 Vsync   6 Vback   23 Vpol N
    Alphanumeric Data String: '2G5VN'
    Manufacturer-Specified Display Descriptor (0x00): 00 00 00 00 41 22 96 01 11 00 00 09 01 0a 20 20 '....A"........  '
Checksum: 0x0b

----------------

Block 1, Unknown EDID Extension Block 0x00:
  00 ff ff ff ff ff ff 00 06 af 5c 10 00 00 00 00 '..........\.....'
  00 1c 01 04 95 1a 0e 78 02 6b f5 91 55 54 91 27 '.......x.k..UT.''
  22 50 54 00 00 00 01 01 01 01 01 01 01 01 01 01 '"PT.............'
  01 01 01 01 01 01 89 1d 56 d0 50 00 20 30 28 20 '........V.P. 0( '
  36 00 00 90 10 00 00 1a a1 17 56 d0 50 00 20 30 '6.........V.P. 0'
  28 20 36 00 00 90 10 00 00 1a 00 00 00 fe 00 32 '( 6............2'
  47 35 56 4e 80 42 31 31 36 58 54 4b 00 00 00 00 'G5VN.B116XTK....'
  00 00 41 22 96 01 11 00 00 09 01 0a 20 20 00 0b '..A"........  ..'
Checksum: 0x0b

----------------

Warnings:

Block 0, Base EDID:
  Missing Display Product Name.

Failures:

Block 0, Base EDID:
  Alphanumeric Data String: Non-printable character.
Block 1, Base EDID:
  Unknown Extension Block.
EDID:
  Base EDID: EDID specified 0 extension block(s), but found 1 extension block(s).

EDID conformity: FAIL
