edid-decode (hex):

00 ff ff ff ff ff ff 00 4c 23 00 27 01 00 00 00
18 22 01 04 b5 3c 21 78 3b ca 75 a9 54 45 98 22
1f 50 54 af cf 00 81 80 b3 00 95 00 61 40 45 40
01 01 01 01 01 01 02 3a 80 18 71 38 2d 40 58 2c
35 00 55 50 21 00 00 1e 00 00 00 ff 00 30 30 30
30 30 30 30 31 30 30 30 30 30 00 00 00 fd 00 3b
a5 a3 a3 28 01 0a 20 20 20 20 20 20 00 00 00 fc
00 53 55 4e 2d 4d 32 37 42 41 31 30 37 0a 01 72

00 ff ff ff ff ff ff 00 4c 23 00 27 01 00 00 00
18 22 01 04 b5 3c 21 78 3b ca 75 a9 54 45 98 22
1f 50 54 af cf 00 81 80 b3 00 95 00 61 40 45 40
01 01 01 01 01 01 02 3a 80 18 71 38 2d 40 58 2c
35 00 55 50 21 00 00 1e 00 00 00 ff 00 30 30 30
30 30 30 30 31 30 30 30 30 30 00 00 00 fd 00 3b
a5 a3 a3 28 01 0a 20 20 20 20 20 20 00 00 00 fc
00 53 55 4e 2d 4d 32 37 42 41 31 30 37 0a 01 72

----------------

Block 0, Base EDID:
  EDID Structure Version & Revision: 1.4
  Vendor & Product Identification:
    Manufacturer: SAC
    Model: 9984
    Serial Number: ...
    Made in: week 24 of 2024
  Basic Display Parameters & Features:
    Digital display
    Bits per primary color channel: 10
    DisplayPort interface
    Maximum image size: 60 cm x 33 cm
    Gamma: 2.20
    DPMS levels: Off
    Supported color formats: RGB 4:4:4, YCrCb 4:4:4, YCrCb 4:2:2
    First detailed timing includes the native pixel format and preferred refresh rate
    Display is continuous frequency
  Color Characteristics:
    Red  : 0.6630, 0.3281
    Green: 0.2714, 0.5957
    Blue : 0.1337, 0.1240
    White: 0.3134, 0.3291
  Established Timings I & II:
    IBM     :   720x400    70.081663 Hz   9:5     31.467 kHz     28.320000 MHz
    DMT 0x04:   640x480    59.940476 Hz   4:3     31.469 kHz     25.175000 MHz
    DMT 0x05:   640x480    72.808802 Hz   4:3     37.861 kHz     31.500000 MHz
    DMT 0x06:   640x480    75.000000 Hz   4:3     37.500 kHz     31.500000 MHz
    DMT 0x08:   800x600    56.250000 Hz   4:3     35.156 kHz     36.000000 MHz
    DMT 0x09:   800x600    60.316541 Hz   4:3     37.879 kHz     40.000000 MHz
    DMT 0x0a:   800x600    72.187572 Hz   4:3     48.077 kHz     50.000000 MHz
    DMT 0x0b:   800x600    75.000000 Hz   4:3     46.875 kHz     49.500000 MHz
    DMT 0x10:  1024x768    60.003840 Hz   4:3     48.363 kHz     65.000000 MHz
    DMT 0x11:  1024x768    70.069359 Hz   4:3     56.476 kHz     75.000000 MHz
    DMT 0x12:  1024x768    75.028582 Hz   4:3     60.023 kHz     78.750000 MHz
    DMT 0x24:  1280x1024   75.024675 Hz   5:4     79.976 kHz    135.000000 MHz
  Standard Timings:
    DMT 0x23:  1280x1024   60.019740 Hz   5:4     63.981 kHz    108.000000 MHz
    DMT 0x3a:  1680x1050   59.954250 Hz  16:10    65.290 kHz    146.250000 MHz
    DMT 0x2f:  1440x900    59.887445 Hz  16:10    55.935 kHz    106.500000 MHz
    DMT 0x10:  1024x768    60.003840 Hz   4:3     48.363 kHz     65.000000 MHz
    DMT 0x09:   800x600    60.316541 Hz   4:3     37.879 kHz     40.000000 MHz
  Detailed Timing Descriptors:
    DTD 1:  1920x1080   60.000000 Hz  16:9     67.500 kHz    148.500000 MHz (597 mm x 336 mm)
                 Hfront   88 Hsync  44 Hback  148 Hpol P
                 Vfront    3 Vsync   5 Vback   37 Vpol P
    Display Product Serial Number: ...
    Display Range Limits:
      Monitor ranges (Bare Limits): 59-165 Hz V, 163-163 kHz H, max dotclock 400 MHz
    Display Product Name: 'SUN-M27BA107'
  Extension blocks: 1
Checksum: 0x72

----------------

Block 1, Unknown EDID Extension Block 0x00:
  00 ff ff ff ff ff ff 00 4c 23 00 27 01 00 00 00 '........L#.'....'
  18 22 01 04 b5 3c 21 78 3b ca 75 a9 54 45 98 22 '."...<!x;.u.TE."'
  1f 50 54 af cf 00 81 80 b3 00 95 00 61 40 45 40 '.PT.........a@E@'
  01 01 01 01 01 01 02 3a 80 18 71 38 2d 40 58 2c '.......:..q8-@X,'
  35 00 55 50 21 00 00 1e 00 00 00 ff 00 30 30 30 '5.UP!........000'
  30 30 30 30 31 30 30 30 30 30 00 00 00 fd 00 3b '0000100000.....;'
  a5 a3 a3 28 01 0a 20 20 20 20 20 20 00 00 00 fc '...(..      ....'
  00 53 55 4e 2d 4d 32 37 42 41 31 30 37 0a 01 72 '.SUN-M27BA107..r'
Checksum: 0x72

----------------

Warnings:

Block 0, Base EDID:
  Detailed Timing Descriptor #1: DTD is similar but not identical to VIC 16.
EDID:
  Base EDID: Some timings are out of range of the Monitor Ranges:
    Vertical Freq: 56.250 - 75.029 Hz (Monitor: 59.000 - 165.000 Hz)
    Horizontal Freq: 31.466 - 79.976 kHz (Monitor: 163.000 - 163.000 kHz)

Failures:

Block 1, Base EDID:
  Unknown Extension Block.

EDID conformity: FAIL
