
EDID (hex):
00ffffffffffff00367f250000000000
0413010380221378f2ce50a3574c9926
0f505400000001010101010101010101
0101010101011a36809a703822401933
5b0054be100000001a3680c471385840
4b96ed0054be10000000000000000000
00000000000000000000000000000000
0000000000000000000000000000000a

Extracted contents:
header:          00 ff ff ff ff ff ff 00
serial number:   36 7f 25 00 00 00 00 00 04 13
version:         01 03
basic params:    80 22 13 78 f2
chroma info:     ce 50 a3 57 4c 99 26 0f 50 54
established:     00 00 00
standard:        01 01 01 01 01 01 01 01 01 01 01 01 01 01 01 01
descriptor 1:    1a 36 80 9a 70 38 22 40 19 33 5b 00 54 be 10 00 00 00
descriptor 2:    1a 36 80 c4 71 38 58 40 4b 96 ed 00 54 be 10 00 00 00
descriptor 3:    00 00 00 00 00 00 00 00 00 00 00 00 00 00 00 00 00 00
descriptor 4:    00 00 00 00 00 00 00 00 00 00 00 00 00 00 00 00 00 00
extensions:      00
checksum:        0a

EDID version: 1.3
Manufacturer: MS_ Model 25 Serial Number --
Made in week 4 of 2009
Digital display
Maximum image size: 34 cm x 19 cm
Gamma: 2.20
DPMS levels: Standby Suspend Off
Non-RGB color display
First detailed timing is preferred timing
Display x,y Chromaticity:
  Red:   0.6396, 0.3398
  Green: 0.2998, 0.5996
  Blue:  0.1494, 0.0595
  White: 0.3125, 0.3281
Established timings supported:
Standard timings supported:
Detailed mode: Clock 138.500 MHz, 340 mm x 190 mm
               1920 1945 1996 2074 hborder 0
               1080 1085 1096 1114 vborder 0
               -hsync -vsync analog composite 
               VertFreq: 59 Hz, HorFreq: 66779 Hz
Detailed mode: Clock 138.500 MHz, 340 mm x 190 mm
               1920 1995 2145 2372 hborder 0
               1080 1094 1107 1168 vborder 0
               -hsync -vsync analog composite 
               VertFreq: 49 Hz, HorFreq: 58389 Hz
Manufacturer-specified data, tag 0
Manufacturer-specified data, tag 0
Checksum: 0xa (valid)
EDID block does NOT conform to EDID 1.3!
	Missing name descriptor
	Missing monitor ranges
EDID block does not conform at all!
	Manufacturer name field contains garbage
