edid-decode (hex):

00 ff ff ff ff ff ff 00 36 7f 25 00 00 00 00 00
00 00 01 03 80 26 15 78 f2 ce 50 a3 57 4c 99 26
0f 50 54 21 08 00 31 40 45 40 61 40 71 40 81 40
00 00 00 00 00 00 8c 37 80 86 70 38 4b 40 16 2c
c9 00 7c d2 10 00 00 00 00 00 00 00 00 00 00 00
00 00 00 00 00 00 00 00 00 00 00 00 00 00 00 00
00 00 00 00 00 00 00 00 00 00 00 00 00 00 00 00
00 00 00 00 00 00 00 00 00 00 00 00 00 00 00 96

00 ff ff ff ff ff ff 00 36 7f 25 00 00 00 00 00
00 00 01 03 80 26 15 78 f2 ce 50 a3 57 4c 99 26
0f 50 54 21 08 00 31 40 45 40 61 40 71 40 81 40
00 00 00 00 00 00 8c 37 80 86 70 38 4b 40 16 2c
c9 00 7c d2 10 00 00 00 00 00 00 00 00 00 00 00
00 00 00 00 00 00 00 00 00 00 00 00 00 00 00 00
00 00 00 00 00 00 00 00 00 00 00 00 00 00 00 00
00 00 00 00 00 00 00 00 00 00 00 00 00 00 00 96

----------------

Block 0, Base EDID:
  EDID Structure Version & Revision: 1.3
  Vendor & Product Identification:
    Manufacturer: MS_
    Model: 37
    Made in: 1990
  Basic Display Parameters & Features:
    Digital display
    Maximum image size: 38 cm x 21 cm
    Gamma: 2.20
    DPMS levels: Standby Suspend Off
    Non-RGB color display
    First detailed timing is the preferred timing
  Color Characteristics:
    Red  : 0.6396, 0.3398
    Green: 0.2998, 0.5996
    Blue : 0.1494, 0.0595
    White: 0.3125, 0.3281
  Established Timings I & II:
    DMT 0x04:   640x480    59.940476 Hz   4:3     31.469 kHz     25.175000 MHz
    DMT 0x09:   800x600    60.316541 Hz   4:3     37.879 kHz     40.000000 MHz
    DMT 0x10:  1024x768    60.003840 Hz   4:3     48.363 kHz     65.000000 MHz
  Standard Timings:
    DMT 0x04:   640x480    59.940476 Hz   4:3     31.469 kHz     25.175000 MHz
    DMT 0x09:   800x600    60.316541 Hz   4:3     37.879 kHz     40.000000 MHz
    DMT 0x10:  1024x768    60.003840 Hz   4:3     48.363 kHz     65.000000 MHz
    GTF     :  1152x864    60.000000 Hz   4:3     53.700 kHz     81.624000 MHz
    DMT 0x20:  1280x960    60.000000 Hz   4:3     60.000 kHz    108.000000 MHz
  Detailed Timing Descriptors:
    DTD 1:  1920x1080   59.940060 Hz  16:9     69.231 kHz    142.200000 MHz (analog composite, sync-on-green, 380 mm x 210 mm)
                 Hfront   22 Hsync  44 Hback   68 Hpol N
                 Vfront   12 Vsync   9 Vback   54 Vpol N
    Empty Descriptor
    Empty Descriptor
    Empty Descriptor
Checksum: 0x96

----------------

Block 1, Unknown EDID Extension Block 0x00:
  00 ff ff ff ff ff ff 00 36 7f 25 00 00 00 00 00 '........6.%.....'
  00 00 01 03 80 26 15 78 f2 ce 50 a3 57 4c 99 26 '.....&.x..P.WL.&'
  0f 50 54 21 08 00 31 40 45 40 61 40 71 40 81 40 '.PT!..1@E@a@q@.@'
  00 00 00 00 00 00 8c 37 80 86 70 38 4b 40 16 2c '.......7..p8K@.,'
  c9 00 7c d2 10 00 00 00 00 00 00 00 00 00 00 00 '..|.............'
  00 00 00 00 00 00 00 00 00 00 00 00 00 00 00 00 '................'
  00 00 00 00 00 00 00 00 00 00 00 00 00 00 00 00 '................'
  00 00 00 00 00 00 00 00 00 00 00 00 00 00 00 96 '................'
Checksum: 0x96

----------------

Failures:

Block 0, Base EDID:
  Vendor & Product Identification: Manufacturer name field contains garbage.
  Standard Timings: Use 0x0101 as the invalid Standard Timings code, not 0x0000.
  Standard Timings: Use 0x0101 as the invalid Standard Timings code, not 0x0000.
  Standard Timings: Use 0x0101 as the invalid Standard Timings code, not 0x0000.
  Empty Descriptor: Use Dummy Descriptor instead of all zeroes.
  Empty Descriptor: Use Dummy Descriptor instead of all zeroes.
  Empty Descriptor: Use Dummy Descriptor instead of all zeroes.
  Missing Display Product Name.
  Missing Display Range Limits Descriptor.
Block 1, Base EDID:
  Unknown Extension Block.
EDID:
  Base EDID: EDID specified 0 extension block(s), but found 1 extension block(s).

EDID conformity: FAIL
