
EDID (hex):
00ffffffffffff00367f250001010101
3014010380351e780a0f159a564b8b26
205054000000d1c00101010101010101
010101010101403880b4703840402850
3600132b21000018403880807138aa40
28503600132b21000018000000fc0053
6f6e79204c43440a20202020000000fd
00273d2b4211000a2020202020200024

Extracted contents:
header:          00 ff ff ff ff ff ff 00
serial number:   36 7f 25 00 01 01 01 01 30 14
version:         01 03
basic params:    80 35 1e 78 0a
chroma info:     0f 15 9a 56 4b 8b 26 20 50 54
established:     00 00 00
standard:        d1 c0 01 01 01 01 01 01 01 01 01 01 01 01 01 01
descriptor 1:    40 38 80 b4 70 38 40 40 28 50 36 00 13 2b 21 00 00 18
descriptor 2:    40 38 80 80 71 38 aa 40 28 50 36 00 13 2b 21 00 00 18
descriptor 3:    00 00 00 fc 00 53 6f 6e 79 20 4c 43 44 0a 20 20 20 20
descriptor 4:    00 00 00 fd 00 27 3d 2b 42 11 00 0a 20 20 20 20 20 20
extensions:      00
checksum:        24

EDID version: 1.3
Manufacturer: MS_ Model 25 Serial Number --
Made in week 48 of 2010
Digital display
Maximum image size: 53 cm x 30 cm
Gamma: 2.20
RGB color display
First detailed timing is preferred timing
Display x,y Chromaticity:
  Red:   0.6015, 0.3359
  Green: 0.2958, 0.5458
  Blue:  0.1484, 0.1259
  White: 0.3134, 0.3291
Established timings supported:
Standard timings supported:
  1920x1080@60Hz 16:9
Detailed mode: Clock 144.000 MHz, 531 mm x 299 mm
               1920 1960 2040 2100 hborder 0
               1080 1083 1089 1144 vborder 0
               -hsync -vsync 
               VertFreq: 59 Hz, HorFreq: 68571 Hz
Detailed mode: Clock 144.000 MHz, 531 mm x 299 mm
               1920 1960 2040 2304 hborder 0
               1080 1083 1089 1250 vborder 0
               -hsync -vsync 
               VertFreq: 50 Hz, HorFreq: 62500 Hz
Monitor name: Sony LCD
Monitor ranges (GTF): 39-61Hz V, 43-66kHz H, max dotclock 170MHz
Checksum: 0x24 (valid)
One or more of the timings is out of range of the Monitor Ranges:
  Vertical Freq: 50 - 60 Hz
  Horizontal Freq: 62500 - 68571 Hz
  Maximum Clock: 144.000 MHz
EDID block does not conform at all!
	Manufacturer name field contains garbage
