
EDID (hex):
00ffffffffffff00367f250001010101
31160104a51d1078020f159a564b8b26
205054000000d1c00101010101010101
0101010101019c3f803172380f402020
330023a4100000180727806971380f40
2020330023a410000018000000fc0053
6f6e79204c43440a20202020000000fd
00273d2b4211000a20202020202000fa

Extracted contents:
header:          00 ff ff ff ff ff ff 00
serial number:   36 7f 25 00 01 01 01 01 31 16
version:         01 04
basic params:    a5 1d 10 78 02
chroma info:     0f 15 9a 56 4b 8b 26 20 50 54
established:     00 00 00
standard:        d1 c0 01 01 01 01 01 01 01 01 01 01 01 01 01 01
descriptor 1:    9c 3f 80 31 72 38 0f 40 20 20 33 00 23 a4 10 00 00 18
descriptor 2:    07 27 80 69 71 38 0f 40 20 20 33 00 23 a4 10 00 00 18
descriptor 3:    00 00 00 fc 00 53 6f 6e 79 20 4c 43 44 0a 20 20 20 20
descriptor 4:    00 00 00 fd 00 27 3d 2b 42 11 00 0a 20 20 20 20 20 20
extensions:      00
checksum:        fa

EDID version: 1.4
Manufacturer: MS_ Model 25 Serial Number --
Made in week 49 of 2012
Digital display
8 bits per primary color channel
DisplayPort interface
Maximum image size: 29 cm x 16 cm
Gamma: 2.20
Supported color formats: RGB 4:4:4
First detailed timing includes the native pixel format and preferred refresh rate
Display x,y Chromaticity:
  Red:   0.6015, 0.3359
  Green: 0.2958, 0.5458
  Blue:  0.1484, 0.1259
  White: 0.3134, 0.3291
Established timings supported:
Standard timings supported:
  1920x1080@60Hz 16:9
Detailed mode: Clock 162.840 MHz, 291 mm x 164 mm
               1920 1952 1984 2481 hborder 0
               1080 1083 1086 1095 vborder 0
               -hsync -vsync 
               VertFreq: 59 Hz, HorFreq: 65634 Hz
Detailed mode: Clock 99.910 MHz, 291 mm x 164 mm
               1920 1952 1984 2281 hborder 0
               1080 1083 1086 1095 vborder 0
               -hsync -vsync 
               VertFreq: 40 Hz, HorFreq: 43800 Hz
Monitor name: Sony LCD
Monitor ranges (GTF): 39-61Hz V, 43-66kHz H, max dotclock 170MHz
Checksum: 0xfa (valid)
EDID block does not conform at all!
	Manufacturer name field contains garbage
