edid-decode (hex):

00 ff ff ff ff ff ff 00 36 7f 25 00 00 00 00 00
04 13 01 03 80 26 15 78 f2 ce 50 a3 57 4c 99 26
0f 50 54 00 00 00 01 01 01 01 01 01 01 01 01 01
01 01 01 01 01 01 76 3a 80 64 71 38 11 40 3b 76
25 00 7c d2 10 00 00 00 c4 30 80 64 71 38 11 40
3b 76 25 00 7c d2 10 00 00 00 00 00 00 00 00 00
00 00 00 00 00 00 00 00 00 00 00 00 00 00 00 00
00 00 00 00 00 00 00 00 00 00 00 00 00 00 00 3e

----------------

Block 0, Base EDID:
  EDID Structure Version & Revision: 1.3
  Vendor & Product Identification:
    Manufacturer: MS_
    Model: 37
    Made in: week 4 of 2009
  Basic Display Parameters & Features:
    Digital display
    Maximum image size: 38 cm x 21 cm
    Gamma: 2.20
    DPMS levels: Standby Suspend Off
    Non-RGB color display
    First detailed timing is preferred timing
  Color Characteristics:
    Red  : 0.6396, 0.3398
    Green: 0.2998, 0.5996
    Blue : 0.1494, 0.0595
    White: 0.3125, 0.3281
  Established Timings I & II: none
  Standard Timings: none
  Detailed Timing Descriptors:
    DTD 1:  1920x1080   59.941 Hz  16:9    65.756 kHz 149.660 MHz (analog composite, sync-on-green, 380 mm x 210 mm)
                 Hfront   59 Hsync 118 Hback 179 Hpol N
                 Vfront    2 Vsync   5 Vback  10 Vpol N
    DTD 2:  1920x1080   50.001 Hz  16:9    54.851 kHz 124.840 MHz (analog composite, sync-on-green, 380 mm x 210 mm)
                 Hfront   59 Hsync 118 Hback 179 Hpol N
                 Vfront    2 Vsync   5 Vback  10 Vpol N
    Empty Descriptor
    Empty Descriptor
Checksum: 0x3e

----------------

Failures:

Block 0, Base EDID:
  Vendor & Product Identification: Manufacturer name field contains garbage.
  Empty Descriptor: Use Dummy Descriptor instead of all zeroes.
  Empty Descriptor: Use Dummy Descriptor instead of all zeroes.
  Missing Display Product Name.
  Missing Display Range Limits Descriptor.

EDID conformity: FAIL
