
EDID (hex):
00ffffffffffff004ca3425400000000
00120103902517780a87f594574f8c27
27505400000001010101010101010101
0101010101012e2ba0e8518438305098
36006fe61000001a2e2ba0e851843830
509836006fe61000001a000000fe0046
523935328031373042540a2000000000
00000000000000000002010a20200008

Extracted contents:
header:          00 ff ff ff ff ff ff 00
serial number:   4c a3 42 54 00 00 00 00 00 12
version:         01 03
basic params:    90 25 17 78 0a
chroma info:     87 f5 94 57 4f 8c 27 27 50 54
established:     00 00 00
standard:        01 01 01 01 01 01 01 01 01 01 01 01 01 01 01 01
descriptor 1:    2e 2b a0 e8 51 84 38 30 50 98 36 00 6f e6 10 00 00 1a
descriptor 2:    2e 2b a0 e8 51 84 38 30 50 98 36 00 6f e6 10 00 00 1a
descriptor 3:    00 00 00 fe 00 46 52 39 35 32 80 31 37 30 42 54 0a 20
descriptor 4:    00 00 00 00 00 00 00 00 00 00 00 00 00 02 01 0a 20 20
extensions:      00
checksum:        08

EDID version: 1.3
Manufacturer: SEC Model 5442 Serial Number --
Made in year 2008
Digital display
Maximum image size: 37 cm x 23 cm
Gamma: 2.20
RGB color display
First detailed timing is preferred timing
Display x,y Chromaticity:
  Red:   0.5800, 0.3398
  Green: 0.3095, 0.5498
  Blue:  0.1552, 0.1552
  White: 0.3134, 0.3291
Established timings supported:
Standard timings supported:
Detailed mode: Clock 110.540 MHz, 367 mm x 230 mm
               1440 1520 1672 1928 hborder 0
                900  903  909  956 vborder 0
               +hsync -vsync 
               VertFreq: 59 Hz, HorFreq: 57334 Hz
Detailed mode: Clock 110.540 MHz, 367 mm x 230 mm
               1440 1520 1672 1928 hborder 0
                900  903  909  956 vborder 0
               +hsync -vsync 
               VertFreq: 59 Hz, HorFreq: 57334 Hz
ASCII string: FR952
Manufacturer-specified data, tag 0
Checksum: 0x8 (valid)
EDID block does NOT conform to EDID 1.3!
	Digital display field contains garbage: 10
	Missing name descriptor
	Missing monitor ranges
	Detailed block string not properly terminated
