edid-decode (hex):

00 ff ff ff ff ff ff 00 2c 83 02 00 02 00 00 00
13 1c 01 04 a5 1f 11 78 0a fd 15 95 57 5f 90 28
1a 50 54 00 00 00 01 01 01 01 01 01 01 01 01 01
01 01 01 01 01 01 88 36 80 8c 70 38 32 40 28 28
26 04 35 ae 10 00 00 1e a2 2b 80 8c 70 38 32 40
28 28 26 04 35 ae 10 00 00 1e 00 00 00 00 00 00
00 00 00 00 00 00 00 00 00 00 00 00 00 00 00 fe
00 4b 44 31 34 30 4e 30 37 33 30 41 30 31 00 1c

----------------

Block 0, Base EDID:
  EDID Structure Version & Revision: 1.4
  Vendor & Product Identification:
    Manufacturer: KDC
    Model: 2
    Serial Number: ...
    Made in: week 19 of 2018
  Basic Display Parameters & Features:
    Digital display
    Bits per primary color channel: 8
    DisplayPort interface
    Maximum image size: 31 cm x 17 cm
    Gamma: 2.20
    Supported color formats: RGB 4:4:4, YCrCb 4:4:4
    First detailed timing includes the native pixel format and preferred refresh rate
  Color Characteristics:
    Red  : 0.5849, 0.3427
    Green: 0.3740, 0.5634
    Blue : 0.1562, 0.1025
    White: 0.3134, 0.3291
  Established Timings I & II: none
  Standard Timings: none
  Detailed Timing Descriptors:
    DTD 1:  1920x1080   59.970788 Hz  16:9     67.767 kHz    139.600000 MHz (309 mm x 174 mm)
                 Hfront   40 Hsync  40 Hback   60 Hpol P
                 Vfront   18 Vsync   6 Vback   26 Vpol P
    DTD 2:  1920x1080   47.985222 Hz  16:9     54.223 kHz    111.700000 MHz (309 mm x 174 mm)
                 Hfront   40 Hsync  40 Hback   60 Hpol P
                 Vfront   18 Vsync   6 Vback   26 Vpol P
    Empty Descriptor
    Alphanumeric Data String: 'KD140N0730A01'
Checksum: 0x1c

----------------

Failures:

Block 0, Base EDID:
  Empty Descriptor: Use Dummy Descriptor instead of all zeroes.
  Missing Display Product Name.

EDID conformity: FAIL
