
EDID (hex):
00ffffffffffff004ca3415400000000
00140104901e11780a4bc59c57548c27
17505400000001010101010101010101
010101010101411d56d6500016303020
550035ae1000001a9a1356de50001630
3020550035ae1000001a000000fe0058
474e344e8031343041540a2000000000
00004101940000000001010a202000f5

Extracted contents:
header:          00 ff ff ff ff ff ff 00
serial number:   4c a3 41 54 00 00 00 00 00 14
version:         01 04
basic params:    90 1e 11 78 0a
chroma info:     4b c5 9c 57 54 8c 27 17 50 54
established:     00 00 00
standard:        01 01 01 01 01 01 01 01 01 01 01 01 01 01 01 01
descriptor 1:    41 1d 56 d6 50 00 16 30 30 20 55 00 35 ae 10 00 00 1a
descriptor 2:    9a 13 56 de 50 00 16 30 30 20 55 00 35 ae 10 00 00 1a
descriptor 3:    00 00 00 fe 00 58 47 4e 34 4e 80 31 34 30 41 54 0a 20
descriptor 4:    00 00 00 00 00 00 41 01 94 00 00 00 00 01 01 0a 20 20
extensions:      00
checksum:        f5

EDID version: 1.4
Manufacturer: SEC Model 5441 Serial Number --
Made in year 2010
Digital display
6 bits per primary color channel
Digital interface is not defined
Maximum image size: 30 cm x 17 cm
Gamma: 2.20
Supported color formats: RGB 4:4:4, YCrCb 4:4:4
First detailed timing includes the native pixel format and preferred refresh rate
Display x,y Chromaticity:
  Red:   0.6103, 0.3398
  Green: 0.3300, 0.5498
  Blue:  0.1552, 0.0898
  White: 0.3134, 0.3291
Established timings supported:
Standard timings supported:
Detailed mode: Clock 74.890 MHz, 309 mm x 174 mm
               1366 1414 1446 1580 hborder 0
                768  773  778  790 vborder 0
               +hsync -vsync 
               VertFreq: 59 Hz, HorFreq: 47398 Hz
Detailed mode: Clock 50.180 MHz, 309 mm x 174 mm
               1366 1414 1446 1588 hborder 0
                768  773  778  790 vborder 0
               +hsync -vsync 
               VertFreq: 39 Hz, HorFreq: 31599 Hz
ASCII string: XGN4N
Manufacturer-specified data, tag 0
Checksum: 0xf5 (valid)
EDID block does NOT conform to EDID 1.4!
	Missing name descriptor
	Missing monitor ranges
	Detailed block string not properly terminated
