edid-decode (hex):

00 ff ff ff ff ff ff 00 4c a3 41 54 00 00 00 00
00 14 01 04 95 1e 13 78 0a 3d f9 9b 55 57 99 27
10 4f 56 00 00 00 01 01 01 01 01 01 01 01 01 01
01 01 01 01 01 01 64 21 00 8c 51 20 32 30 0c 40
33 00 2f be 10 00 00 1a e4 13 00 18 51 20 10 30
0c 40 33 00 2f be 10 00 00 1a 00 00 00 fe 00 43
48 32 34 34 81 31 34 31 41 54 0a 20 00 00 00 00
00 00 41 01 19 00 00 00 00 09 01 0a 20 20 00 a7

----------------

Block 0, Base EDID:
  EDID Structure Version & Revision: 1.4
  Vendor & Product Identification:
    Manufacturer: SEC
    Model: 21569
    Made in: 2010
  Basic Display Parameters & Features:
    Digital display
    Bits per primary color channel: 6
    DisplayPort interface
    Maximum image size: 30 cm x 19 cm
    Gamma: 2.20
    Supported color formats: RGB 4:4:4, YCrCb 4:4:4
    First detailed timing includes the native pixel format and preferred refresh rate
  Color Characteristics:
    Red  : 0.6054, 0.3349
    Green: 0.3427, 0.5986
    Blue : 0.1552, 0.0654
    White: 0.3105, 0.3369
  Established Timings I & II: none
  Standard Timings: none
  Detailed Timing Descriptors:
    DTD 1:  1280x800    60.002808 Hz  16:10    51.002 kHz     85.480000 MHz (303 mm x 190 mm)
                 Hfront   12 Hsync  64 Hback  320 Hpol P
                 Vfront    3 Vsync   3 Vback   44 Vpol N
    DTD 2:  1280x800    40.001257 Hz  16:10    32.641 kHz     50.920000 MHz (303 mm x 190 mm)
                 Hfront   12 Hsync  64 Hback  204 Hpol P
                 Vfront    3 Vsync   3 Vback   10 Vpol N
    Alphanumeric Data String: 'CH244'
    Manufacturer-Specified Display Descriptor (0x00): 00 00 00 00 41 01 19 00 00 00 00 09 01 0a 20 20 '....A.........  '
Checksum: 0xa7

----------------

Warnings:

Block 0, Base EDID:
  Missing Display Product Name.

Failures:

Block 0, Base EDID:
  Alphanumeric Data String: Non-printable character.

EDID conformity: FAIL
