
EDID (hex):
00ffffffffffff004ca3415400000000
00140103901e11780a4bc59c57548c27
17505400000001010101010101010101
010101010101411c56a0500016303020
550035ae1000001a411c56a050001630
3020550035ae1000001a000000fe004b
393156358031343041540a2000000000
000c10171b3669a9ff01010a2020002b

Extracted contents:
header:          00 ff ff ff ff ff ff 00
serial number:   4c a3 41 54 00 00 00 00 00 14
version:         01 03
basic params:    90 1e 11 78 0a
chroma info:     4b c5 9c 57 54 8c 27 17 50 54
established:     00 00 00
standard:        01 01 01 01 01 01 01 01 01 01 01 01 01 01 01 01
descriptor 1:    41 1c 56 a0 50 00 16 30 30 20 55 00 35 ae 10 00 00 1a
descriptor 2:    41 1c 56 a0 50 00 16 30 30 20 55 00 35 ae 10 00 00 1a
descriptor 3:    00 00 00 fe 00 4b 39 31 56 35 80 31 34 30 41 54 0a 20
descriptor 4:    00 00 00 00 00 0c 10 17 1b 36 69 a9 ff 01 01 0a 20 20
extensions:      00
checksum:        2b

EDID version: 1.3
Manufacturer: SEC Model 5441 Serial Number --
Made in year 2010
Digital display
Maximum image size: 30 cm x 17 cm
Gamma: 2.20
RGB color display
First detailed timing is preferred timing
Display x,y Chromaticity:
  Red:   0.6103, 0.3398
  Green: 0.3300, 0.5498
  Blue:  0.1552, 0.0898
  White: 0.3134, 0.3291
Established timings supported:
Standard timings supported:
Detailed mode: Clock 72.330 MHz, 309 mm x 174 mm
               1366 1414 1446 1526 hborder 0
                768  773  778  790 vborder 0
               +hsync -vsync 
               VertFreq: 59 Hz, HorFreq: 47398 Hz
Detailed mode: Clock 72.330 MHz, 309 mm x 174 mm
               1366 1414 1446 1526 hborder 0
                768  773  778  790 vborder 0
               +hsync -vsync 
               VertFreq: 59 Hz, HorFreq: 47398 Hz
ASCII string: K91V5
Manufacturer-specified data, tag 0
Checksum: 0x2b (valid)
EDID block does NOT conform to EDID 1.3!
	Digital display field contains garbage: 10
	Missing name descriptor
	Missing monitor ranges
	Detailed block string not properly terminated
