
EDID (hex):
00ffffffffffff0006af8af000000000
001d0104952213780205b59459599228
1d505400000001010101010101010101
010101010101143780b4703824406c30
aa0058c2100000180000000f00000000
00000000000000000020000000fe0041
554f0a202020202020202020000000fe
004231353648414230332e30200a0005

Extracted contents:
header:          00 ff ff ff ff ff ff 00
serial number:   06 af 8a f0 00 00 00 00 00 1d
version:         01 04
basic params:    95 22 13 78 02
chroma info:     05 b5 94 59 59 92 28 1d 50 54
established:     00 00 00
standard:        01 01 01 01 01 01 01 01 01 01 01 01 01 01 01 01
descriptor 1:    14 37 80 b4 70 38 24 40 6c 30 aa 00 58 c2 10 00 00 18
descriptor 2:    00 00 00 0f 00 00 00 00 00 00 00 00 00 00 00 00 00 20
descriptor 3:    00 00 00 fe 00 41 55 4f 0a 20 20 20 20 20 20 20 20 20
descriptor 4:    00 00 00 fe 00 42 31 35 36 48 41 42 30 33 2e 30 20 0a
extensions:      00
checksum:        05

EDID version: 1.4
Manufacturer: AUO Model f08a Serial Number --
Made in year 2019
Digital display
6 bits per primary color channel
DisplayPort interface
Maximum image size: 34 cm x 19 cm
Gamma: 2.20
Supported color formats: RGB 4:4:4
First detailed timing includes the native pixel format and preferred refresh rate
Display x,y Chromaticity:
  Red:   0.5781, 0.3476
  Green: 0.3486, 0.5712
  Blue:  0.1582, 0.1162
  White: 0.3134, 0.3291
Established timings supported:
Standard timings supported:
Detailed mode: Clock 141.000 MHz, 344 mm x 194 mm
               1920 2028 2076 2100 hborder 0
               1080 1090 1100 1116 vborder 0
               -hsync -vsync 
               VertFreq: 60 Hz, HorFreq: 67142 Hz
Manufacturer-specified data, tag 15
ASCII string: AUO
ASCII string: B156HAB03.0 
Checksum: 0x5 (valid)
EDID block does NOT conform to EDID 1.4!
	Missing name descriptor
	Missing monitor ranges
