edid-decode (hex):

00 ff ff ff ff ff ff 00 06 af ec 20 00 00 00 00
00 15 01 04 90 22 13 78 02 c8 95 9e 57 54 92 26
0f 50 54 00 00 00 01 01 01 01 01 01 01 01 01 01
01 01 01 01 01 01 ce 1d 56 d2 50 00 26 30 10 10
3e 00 58 c1 10 00 00 18 df 13 56 d2 50 00 26 30
10 10 3e 00 58 c1 10 00 00 18 00 00 00 00 00 00
00 00 00 00 00 00 00 00 00 00 00 00 00 00 00 02
00 0d 39 e0 0d 3c 64 14 12 24 6f 20 20 20 00 26

----------------

Block 0, Base EDID:
  EDID Structure Version & Revision: 1.4
  Vendor & Product Identification:
    Manufacturer: AUO
    Model: 8428
    Made in: 2011
  Basic Display Parameters & Features:
    Digital display
    Bits per primary color channel: 6
    Digital interface is not defined
    Maximum image size: 34 cm x 19 cm
    Gamma: 2.20
    Supported color formats: RGB 4:4:4
    First detailed timing includes the native pixel format and preferred refresh rate
  Color Characteristics:
    Red  : 0.6201, 0.3398
    Green: 0.3300, 0.5703
    Blue : 0.1503, 0.0595
    White: 0.3134, 0.3291
  Established Timings I & II: none
  Standard Timings: none
  Detailed Timing Descriptors:
    DTD 1:  1366x768    60.067 Hz 683:384  48.414 kHz  76.300 MHz (344 mm x 193 mm)
                 Hfront   16 Hsync  16 Hback 178 Hpol N
                 Vfront    3 Vsync  14 Vback  21 Vpol N
    DTD 2:  1366x768    40.047 Hz 683:384  32.278 kHz  50.870 MHz (344 mm x 193 mm)
                 Hfront   16 Hsync  16 Hback 178 Hpol N
                 Vfront    3 Vsync  14 Vback  21 Vpol N
    Empty Descriptor
    Manufacturer-Specified Display Descriptor (0x02): 00 02 00 0d 39 e0 0d 3c 64 14 12 24 6f 20 20 20 '....9..<d..$o   '
Checksum: 0x26
