edid-decode (hex):

00 ff ff ff ff ff ff 00 44 93 16 00 00 00 00 00
00 0f 01 03 80 1e 17 78 0a f1 a0 93 5a 4e 8f 27
22 50 54 00 00 00 01 01 01 01 01 01 01 01 01 01
01 01 01 01 01 01 f8 2a 78 48 51 1a 11 40 14 12
21 00 30 e4 10 00 00 18 00 00 00 0f 00 05 0a 8f
eb 01 02 05 16 96 fa 05 19 01 00 00 00 fe 00 51
55 41 4e 54 41 44 49 53 50 4c 41 59 00 00 00 fe
00 51 44 31 35 46 4c 30 32 31 0a 20 20 20 00 8b

----------------

Block 0, Base EDID:
  EDID Structure Version & Revision: 1.3
  Vendor & Product Identification:
    Manufacturer: QDS
    Model: 22
    Made in: 2005
  Basic Display Parameters & Features:
    Digital display
    Maximum image size: 30 cm x 23 cm
    Gamma: 2.20
    RGB color display
    First detailed timing is the preferred timing
  Color Characteristics:
    Red  : 0.5771, 0.3544
    Green: 0.3046, 0.5595
    Blue : 0.1542, 0.1347
    White: 0.3125, 0.3281
  Established Timings I & II: none
  Standard Timings: none
  Detailed Timing Descriptors:
    DTD 1:  1400x1050   59.660 Hz   4:3    63.657 kHz 110.000 MHz (304 mm x 228 mm)
                 Hfront   20 Hsync  18 Hback 290 Hpol N
                 Vfront    2 Vsync   1 Vback  14 Vpol N
    Manufacturer-Specified Display Descriptor (0x0f): 00 0f 00 05 0a 8f eb 01 02 05 16 96 fa 05 19 01 '................'
    Alphanumeric Data String: 'QUANTADISPLAY'
    Alphanumeric Data String: 'QD15FL021'
Checksum: 0x8b

----------------

Failures:

Block 0, Base EDID:
  Missing Display Product Name.
  Missing Display Range Limits Descriptor.

EDID conformity: FAIL
