
EDID (hex):
00ffffffffffff00410c000079000000
040f01036c452778cedd28a35343a025
0f484c23080081c00101010101010101
0101010101010e1f008051001e304080
3700b9882100001c000000ff00313233
34350a20202020202020000000fc0033
324d46363035572f31370a20000000fd
00383f1e3208000a2020202020200005

Extracted contents:
header:          00 ff ff ff ff ff ff 00
serial number:   41 0c 00 00 79 00 00 00 04 0f
version:         01 03
basic params:    6c 45 27 78 ce
chroma info:     dd 28 a3 53 43 a0 25 0f 48 4c
established:     23 08 00
standard:        81 c0 01 01 01 01 01 01 01 01 01 01 01 01 01 01
descriptor 1:    0e 1f 00 80 51 00 1e 30 40 80 37 00 b9 88 21 00 00 1c
descriptor 2:    00 00 00 ff 00 31 32 33 34 35 0a 20 20 20 20 20 20 20
descriptor 3:    00 00 00 fc 00 33 32 4d 46 36 30 35 57 2f 31 37 0a 20
descriptor 4:    00 00 00 fd 00 38 3f 1e 32 08 00 0a 20 20 20 20 20 20
extensions:      00
checksum:        05

EDID version: 1.3
Manufacturer: PHL Model 0 Serial Number --
Analog display, Input voltage level: 0.7/0.7 V
Sync: Separate Composite 
Maximum image size: 69 cm x 39 cm
Gamma: 2.20
DPMS levels: Standby Suspend
RGB color display
Default (sRGB) color space is primary color space
First detailed timing is preferred timing
Display x,y Chromaticity:
  Red:   0.6396, 0.3251
  Green: 0.2646, 0.6259
  Blue:  0.1445, 0.0605
  White: 0.2832, 0.2968
Established timings supported:
  640x480@60Hz 4:3 HorFreq: 31469 Hz Clock: 25.175 MHz
  800x600@56Hz 4:3 HorFreq: 35200 Hz Clock: 36.000 MHz
  800x600@60Hz 4:3 HorFreq: 37900 Hz Clock: 40.000 MHz
  1024x768@60Hz 4:3 HorFreq: 48400 Hz Clock: 65.000 MHz
Standard timings supported:
  1280x720@60Hz 16:9
Detailed mode: Clock 79.500 MHz, 697 mm x 392 mm
               1280 1344 1472 1664 hborder 0
                768  771  778  798 vborder 0
               -hsync +vsync 
               VertFreq: 59 Hz, HorFreq: 47776 Hz
Serial number: --
Monitor name: 32MF605W/17
Monitor ranges (GTF): 56-63Hz V, 30-50kHz H, max dotclock 80MHz
Checksum: 0x5 (valid)
EDID block does NOT conform to EDID 1.3!
	sRGB is signaled, but the chromaticities do not match
EDID block does not conform at all!
	Bad year of manufacture
