edid-decode (hex):

00 ff ff ff ff ff ff 00 54 e4 03 10 29 07 20 20
2d 1d 01 03 80 09 0f 78 aa b0 65 a6 56 53 9d 28
0c 50 54 00 00 00 01 01 01 01 01 01 01 01 01 01
01 01 01 01 01 01 4c 1a 20 36 30 00 22 50 12 12
44 04 5e 96 00 00 00 1e 4c 1a 20 36 30 00 22 50
12 12 44 04 5e 96 00 00 00 1e 00 00 00 fc 00 48
44 4d 49 0a 20 20 20 20 20 20 20 20 00 00 00 fd
00 3b 3d 1f 46 0a 00 0a 20 20 20 20 20 20 00 cc

----------------

Block 0, Base EDID:
  EDID Structure Version & Revision: 1.3
  Vendor & Product Identification:
    Manufacturer: UGD
    Model: 4099
    Serial Number: ...
    Made in: week 45 of 2019
  Basic Display Parameters & Features:
    Digital display
    Maximum image size: 9 cm x 15 cm
    Gamma: 2.20
    DPMS levels: Standby Off
    RGB color display
    First detailed timing is the preferred timing
  Color Characteristics:
    Red  : 0.6503, 0.3388
    Green: 0.3242, 0.6132
    Blue : 0.1572, 0.0488
    White: 0.3134, 0.3291
  Established Timings I & II: none
  Standard Timings: none
  Detailed Timing Descriptors:
    DTD 1:   800x1280   59.991659 Hz   5:8     78.829 kHz     67.320000 MHz (94 mm x 150 mm)
                 Hfront   18 Hsync  18 Hback   18 Hpol P
                 Vfront   20 Vsync   4 Vback   10 Vpol P
    DTD 2:   800x1280   59.991659 Hz   5:8     78.829 kHz     67.320000 MHz (94 mm x 150 mm)
                 Hfront   18 Hsync  18 Hback   18 Hpol P
                 Vfront   20 Vsync   4 Vback   10 Vpol P
    Display Product Name: 'HDMI'
    Display Range Limits:
      Monitor ranges (GTF): 59-61 Hz V, 31-70 kHz H, max dotclock 100 MHz
Checksum: 0xcc

----------------

Warnings:

Block 0, Base EDID:
  Basic Display Parameters & Features: Dubious maximum image size (9x15 is smaller than 10x10 cm).

Failures:

EDID:
  Base EDID: Some timings are out of range of the Monitor Ranges:
    Horizontal Freq: 78.829 - 78.829 kHz (Monitor: 31.000 - 70.000 kHz)

EDID conformity: FAIL
