edid-decode (hex):

00 ff ff ff ff ff ff 00 30 ae b0 40 00 00 00 00
1f 1d 01 04 95 22 13 78 e2 93 f5 94 5d 5a 92 29
1f 50 54 00 00 00 01 01 01 01 01 01 01 01 01 01
01 01 01 01 01 01 c7 1d 56 e2 50 00 1e 30 30 20
36 00 58 c2 10 00 00 1a d2 17 56 e2 50 00 1e 30
30 20 36 00 58 c2 10 00 00 1a 00 00 00 0f 00 8c
09 3c 8c 09 30 16 09 00 09 e5 c3 08 00 00 00 fe
00 4e 54 31 35 36 57 48 4d 2d 4e 34 34 0a 00 d3

00 ff ff ff ff ff ff 00 30 ae b0 40 00 00 00 00
1f 1d 01 04 95 22 13 78 e2 93 f5 94 5d 5a 92 29
1f 50 54 00 00 00 01 01 01 01 01 01 01 01 01 01
01 01 01 01 01 01 c7 1d 56 e2 50 00 1e 30 30 20
36 00 58 c2 10 00 00 1a d2 17 56 e2 50 00 1e 30
30 20 36 00 58 c2 10 00 00 1a 00 00 00 0f 00 8c
09 3c 8c 09 30 16 09 00 09 e5 c3 08 00 00 00 fe
00 4e 54 31 35 36 57 48 4d 2d 4e 34 34 0a 00 d3

----------------

Block 0, Base EDID:
  EDID Structure Version & Revision: 1.4
  Vendor & Product Identification:
    Manufacturer: LEN
    Model: 16560
    Made in: week 31 of 2019
  Basic Display Parameters & Features:
    Digital display
    Bits per primary color channel: 6
    DisplayPort interface
    Maximum image size: 34 cm x 19 cm
    Gamma: 2.20
    DPMS levels: Standby Suspend Off
    Supported color formats: RGB 4:4:4
    First detailed timing includes the native pixel format and preferred refresh rate
  Color Characteristics:
    Red  : 0.5800, 0.3642
    Green: 0.3515, 0.5732
    Blue : 0.1630, 0.1240
    White: 0.3134, 0.3291
  Established Timings I & II: none
  Standard Timings: none
  Detailed Timing Descriptors:
    DTD 1:  1366x768    60.003967 Hz 683:384   47.883 kHz     76.230000 MHz (344 mm x 194 mm)
                 Hfront   48 Hsync  32 Hback  146 Hpol P
                 Vfront    3 Vsync   6 Vback   21 Vpol N
    DTD 2:  1366x768    48.000025 Hz 683:384   38.304 kHz     60.980000 MHz (344 mm x 194 mm)
                 Hfront   48 Hsync  32 Hback  146 Hpol P
                 Vfront    3 Vsync   6 Vback   21 Vpol N
    Manufacturer-Specified Display Descriptor (0x0f): 00 0f 00 8c 09 3c 8c 09 30 16 09 00 09 e5 c3 08 '.....<..0.......'
    Alphanumeric Data String: 'NT156WHM-N44'
Checksum: 0xd3

----------------

Block 1, Unknown EDID Extension Block 0x00:
  00 ff ff ff ff ff ff 00 30 ae b0 40 00 00 00 00 '........0..@....'
  1f 1d 01 04 95 22 13 78 e2 93 f5 94 5d 5a 92 29 '.....".x....]Z.)'
  1f 50 54 00 00 00 01 01 01 01 01 01 01 01 01 01 '.PT.............'
  01 01 01 01 01 01 c7 1d 56 e2 50 00 1e 30 30 20 '........V.P..00 '
  36 00 58 c2 10 00 00 1a d2 17 56 e2 50 00 1e 30 '6.X.......V.P..0'
  30 20 36 00 58 c2 10 00 00 1a 00 00 00 0f 00 8c '0 6.X...........'
  09 3c 8c 09 30 16 09 00 09 e5 c3 08 00 00 00 fe '.<..0...........'
  00 4e 54 31 35 36 57 48 4d 2d 4e 34 34 0a 00 d3 '.NT156WHM-N44...'
Checksum: 0xd3

----------------

Warnings:

Block 0, Base EDID:
  Missing Display Product Name.

Failures:

Block 1, Base EDID:
  Unknown Extension Block.
EDID:
  Base EDID: EDID specified 0 extension block(s), but found 1 extension block(s).

EDID conformity: FAIL
