
EDID (hex):
00ffffffffffff00367f019001000000
000c010380090f782f0000a057499b26
10484f00000001010101010101010101
010101010101c431b064408028702814
22045e9700000018000000fc00425738
0a202020202020202020000000fd003c
3c7d7d10000000000000000000000000
00000000000000000000000000000072

edid-decode (hex):

00 ff ff ff ff ff ff 00 36 7f 01 90 01 00 00 00
00 0c 01 03 80 09 0f 78 2f 00 00 a0 57 49 9b 26
10 48 4f 00 00 00 01 01 01 01 01 01 01 01 01 01
01 01 01 01 01 01 c4 31 b0 64 40 80 28 70 28 14
22 04 5e 97 00 00 00 18 00 00 00 fc 00 42 57 38
0a 20 20 20 20 20 20 20 20 20 00 00 00 fd 00 3c
3c 7d 7d 10 00 00 00 00 00 00 00 00 00 00 00 00
00 00 00 00 00 00 00 00 00 00 00 00 00 00 00 72

----------------

Block 0, Base EDID:
  EDID Structure Version & Revision: 1.3
  Vendor & Product Identification:
    Manufacturer: MS_
    Model: 36865
    Serial Number: 1
    Made in: 2002
  Basic Display Parameters & Features:
    Digital display
    Maximum image size: 9 cm x 15 cm
    Gamma: 2.20
    DPMS levels: Off
    RGB color display
    Default (sRGB) color space is primary color space
    First detailed timing is the preferred timing
    Supports GTF timings within operating range
  Color Characteristics:
    Red  : 0.6250, 0.3398
    Green: 0.2851, 0.6054
    Blue : 0.1484, 0.0625
    White: 0.2812, 0.3085
  Established Timings I & II: none
  Standard Timings: none
  Detailed Timing Descriptors:
    DTD 1:  1200x1920   50.000000 Hz   5:8     98.000 kHz    127.400000 MHz (94 mm x 151 mm)
                 Hfront   40 Hsync  20 Hback   40 Hpol N
                 Vfront   18 Vsync   2 Vback   20 Vpol N
    Display Product Name: 'BW8'
    Display Range Limits:
      Monitor ranges (GTF): 60-60 Hz V, 125-125 kHz H, max dotclock 160 MHz
    Empty Descriptor
Checksum: 0x72
