
EDID (hex):
00ffffffffffff001e6dea75b73f0100
0715010380402878288f95ad4f32b225
0f505400000001010101010101010101
010101010101bc1b00a0502017303020
360081912100001ab06800a0a0402e60
3020360081912100001a000000fc0057
33303030480a202020202020000000fc
000a2020202020202020202020000009

Extracted contents:
header:          00 ff ff ff ff ff ff 00
serial number:   1e 6d ea 75 b7 3f 01 00 07 15
version:         01 03
basic params:    80 40 28 78 28
chroma info:     8f 95 ad 4f 32 b2 25 0f 50 54
established:     00 00 00
standard:        01 01 01 01 01 01 01 01 01 01 01 01 01 01 01 01
descriptor 1:    bc 1b 00 a0 50 20 17 30 30 20 36 00 81 91 21 00 00 1a
descriptor 2:    b0 68 00 a0 a0 40 2e 60 30 20 36 00 81 91 21 00 00 1a
descriptor 3:    00 00 00 fc 00 57 33 30 30 30 48 0a 20 20 20 20 20 20
descriptor 4:    00 00 00 fc 00 0a 20 20 20 20 20 20 20 20 20 20 20 00
extensions:      00
checksum:        09

EDID version: 1.3
Manufacturer: GSM Model 75ea Serial Number --
Made in week 7 of 2011
Digital display
Maximum image size: 64 cm x 40 cm
Gamma: 2.20
DPMS levels: Off
RGB color display
Display x,y Chromaticity:
  Red:   0.6777, 0.3085
  Green: 0.1982, 0.6982
  Blue:  0.1464, 0.0595
  White: 0.3134, 0.3291
Established timings supported:
Standard timings supported:
Detailed mode: Clock 71.000 MHz, 641 mm x 401 mm
               1280 1328 1360 1440 hborder 0
                800  803  809  823 vborder 0
               +hsync -vsync 
               VertFreq: 59 Hz, HorFreq: 49305 Hz
Detailed mode: Clock 268.000 MHz, 641 mm x 401 mm
               2560 2608 2640 2720 hborder 0
               1600 1603 1609 1646 vborder 0
               +hsync -vsync 
               VertFreq: 59 Hz, HorFreq: 98529 Hz
Monitor name: W3000H
Checksum: 0x9 (valid)
EDID block does NOT conform to EDID 1.3!
	Missing preferred timing
	Missing monitor ranges
