
EDID (hex):
00ffffffffffff00320c000000000000
00110103802517780a3b609a59528d28
25505400000001010101010101010101
010101010101302aa01052840e305030
13006fe6100000190000000000000000
00000000000000000001000000fe0058
31373647003137315758320a000000fe
002a404d567998c4ff02010a202000ec

Extracted contents:
header:          00 ff ff ff ff ff ff 00
serial number:   32 0c 00 00 00 00 00 00 00 11
version:         01 03
basic params:    80 25 17 78 0a
chroma info:     3b 60 9a 59 52 8d 28 25 50 54
established:     00 00 00
standard:        01 01 01 01 01 01 01 01 01 01 01 01 01 01 01 01
descriptor 1:    30 2a a0 10 52 84 0e 30 50 30 13 00 6f e6 10 00 00 19
descriptor 2:    00 00 00 00 00 00 00 00 00 00 00 00 00 00 00 00 00 01
descriptor 3:    00 00 00 fe 00 58 31 37 36 47 00 31 37 31 57 58 32 0a
descriptor 4:    00 00 00 fe 00 2a 40 4d 56 79 98 c4 ff 02 01 0a 20 20
extensions:      00
checksum:        ec

EDID version: 1.3
Manufacturer: LPL Model 0 Serial Number --
Made in year 2007
Digital display
Maximum image size: 37 cm x 23 cm
Gamma: 2.20
RGB color display
First detailed timing is preferred timing
Display x,y Chromaticity:
  Red:   0.6015, 0.3505
  Green: 0.3222, 0.5537
  Blue:  0.1572, 0.1464
  White: 0.3125, 0.3281
Established timings supported:
Standard timings supported:
Detailed mode: Clock 108.000 MHz, 367 mm x 230 mm
               1440 1520 1568 1968 hborder 0
                900  901  904  914 vborder 0
               -hsync -vsync 
               VertFreq: 60 Hz, HorFreq: 54878 Hz
Manufacturer-specified data, tag 0
ASCII string: X176G
ASCII string: *@MVy
Checksum: 0xec (valid)
EDID block does NOT conform to EDID 1.3!
	Missing name descriptor
	Missing monitor ranges
	Detailed block string not properly terminated
