
EDID (hex):
00ffffffffffff00320c000000000000
00110103802517780ab8d59758548c27
22505400000001010101010101010101
0101010101019525a04051840c304020
13006fe6100000190000000000000000
00000000000000000000000000fe0055
4d363036013137315758320a000000fe
002738434b6a91c4ff02010a202000c9

Extracted contents:
header:          00 ff ff ff ff ff ff 00
serial number:   32 0c 00 00 00 00 00 00 00 11
version:         01 03
basic params:    80 25 17 78 0a
chroma info:     b8 d5 97 58 54 8c 27 22 50 54
established:     00 00 00
standard:        01 01 01 01 01 01 01 01 01 01 01 01 01 01 01 01
descriptor 1:    95 25 a0 40 51 84 0c 30 40 20 13 00 6f e6 10 00 00 19
descriptor 2:    00 00 00 00 00 00 00 00 00 00 00 00 00 00 00 00 00 00
descriptor 3:    00 00 00 fe 00 55 4d 36 30 36 01 31 37 31 57 58 32 0a
descriptor 4:    00 00 00 fe 00 27 38 43 4b 6a 91 c4 ff 02 01 0a 20 20
extensions:      00
checksum:        c9

EDID version: 1.3
Manufacturer: LPL Model 0 Serial Number --
Made in year 2007
Digital display
Maximum image size: 37 cm x 23 cm
Gamma: 2.20
RGB color display
First detailed timing is preferred timing
Display x,y Chromaticity:
  Red:   0.5917, 0.3466
  Green: 0.3300, 0.5468
  Blue:  0.1552, 0.1337
  White: 0.3134, 0.3291
Established timings supported:
Standard timings supported:
Detailed mode: Clock 96.210 MHz, 367 mm x 230 mm
               1440 1504 1536 1760 hborder 0
                900  901  904  912 vborder 0
               -hsync -vsync 
               VertFreq: 59 Hz, HorFreq: 54664 Hz
Manufacturer-specified data, tag 0
ASCII string: UM606
ASCII string: '8CKj
Checksum: 0xc9 (valid)
EDID block does NOT conform to EDID 1.3!
	Missing name descriptor
	Missing monitor ranges
	Detailed block string not properly terminated
