edid-decode (hex):

00 ff ff ff ff ff ff 00 30 ae 00 80 01 00 00 00
14 18 01 03 80 2f 1a 78 0a eb f5 a6 56 51 9c 26
10 50 54 00 00 00 01 01 01 01 01 01 01 01 01 01
01 01 01 01 01 01 fe 33 80 54 70 38 1b 40 20 1c
84 00 dd 0c 11 00 00 1e 00 00 00 fc 00 4c 42 47
20 41 49 4f 20 50 43 0a 20 20 00 00 00 fe 00 4c
4d 32 31 35 57 46 33 2d 53 4c 4b 31 00 00 00 ff
00 4c 54 4d 32 31 35 48 54 30 35 0a 20 20 00 bc

----------------

Block 0, Base EDID:
  EDID Structure Version & Revision: 1.3
  Vendor & Product Identification:
    Manufacturer: LEN
    Model: 32768
    Serial Number: ...
    Made in: week 20 of 2014
  Basic Display Parameters & Features:
    Digital display
    Maximum image size: 47 cm x 26 cm
    Gamma: 2.20
    RGB color display
    First detailed timing is preferred timing
  Color Characteristics:
    Red  : 0.6513, 0.3378
    Green: 0.3183, 0.6123
    Blue : 0.1513, 0.0654
    White: 0.3134, 0.3291
  Established Timings I & II: none
  Standard Timings: none
  Detailed Timing Descriptors:
    DTD 1:  1920x1080   59.997 Hz  16:9    66.417 kHz 133.100 MHz (477 mm x 268 mm)
                 Hfront   32 Hsync  28 Hback  24 Hpol P
                 Vfront    8 Vsync   4 Vback  15 Vpol P
    Display Product Name: 'LBG AIO PC'
    Alphanumeric Data String: 'LM215WF3-SLK1'
    Display Product Serial Number: ...
Checksum: 0xbc

----------------

Failures:

Block 0, Base EDID:
  Missing Display Range Limits Descriptor.

EDID conformity: FAIL
