
EDID (hex):
00ffffffffffff0030ae008001000000
1418010380301b78ee2565a3544fa027
ab505400000001010101010101010101
01010101010119388000713814406040
8400e00e1100001e000000fc004c4247
2041494f2050430a2020000000fd003b
3d1e440f000a202020202020000000ff
004c4d3231355746342d544c47310084

Extracted contents:
header:          00 ff ff ff ff ff ff 00
serial number:   30 ae 00 80 01 00 00 00 14 18
version:         01 03
basic params:    80 30 1b 78 ee
chroma info:     25 65 a3 54 4f a0 27 ab 50 54
established:     00 00 00
standard:        01 01 01 01 01 01 01 01 01 01 01 01 01 01 01 01
descriptor 1:    19 38 80 00 71 38 14 40 60 40 84 00 e0 0e 11 00 00 1e
descriptor 2:    00 00 00 fc 00 4c 42 47 20 41 49 4f 20 50 43 0a 20 20
descriptor 3:    00 00 00 fd 00 3b 3d 1e 44 0f 00 0a 20 20 20 20 20 20
descriptor 4:    00 00 00 ff 00 4c 4d 32 31 35 57 46 34 2d 54 4c 47 31
extensions:      00
checksum:        84

EDID version: 1.3
Manufacturer: LEN Model 8000 Serial Number --
Made in week 20 of 2014
Digital display
Maximum image size: 48 cm x 27 cm
Gamma: 2.20
DPMS levels: Standby Suspend Off
RGB color display
Default (sRGB) color space is primary color space
First detailed timing is preferred timing
Display x,y Chromaticity:
  Red:   0.6367, 0.3300
  Green: 0.3095, 0.6259
  Blue:  0.1533, 0.6699
  White: 0.3134, 0.3291
Established timings supported:
Standard timings supported:
Detailed mode: Clock 143.610 MHz, 480 mm x 270 mm
               1920 2016 2080 2176 hborder 0
               1080 1088 1092 1100 vborder 0
               +hsync +vsync 
               VertFreq: 59 Hz, HorFreq: 65997 Hz
Monitor name: LBG AIO PC
Monitor ranges (GTF): 59-61Hz V, 30-68kHz H, max dotclock 150MHz
Serial number: --
Checksum: 0x84 (valid)
EDID block does NOT conform to EDID 1.3!
	sRGB is signaled, but the chromaticities do not match
