
EDID (hex):
00ffffffffffff0009e5640900000000
161e0104a51d12780386e9a7514c9c27
0e515200000001010101010101010101
010101010101743c80a070b028403020
36001eb31000001a000000fd00283c4b
4b10010a202020202020000000fe0042
4f452048460a202020202020000000fe
004e5631333357554d2d4e36310a00d7

Extracted contents:
header:          00 ff ff ff ff ff ff 00
serial number:   09 e5 64 09 00 00 00 00 16 1e
version:         01 04
basic params:    a5 1d 12 78 03
chroma info:     86 e9 a7 51 4c 9c 27 0e 51 52
established:     00 00 00
standard:        01 01 01 01 01 01 01 01 01 01 01 01 01 01 01 01
descriptor 1:    74 3c 80 a0 70 b0 28 40 30 20 36 00 1e b3 10 00 00 1a
descriptor 2:    00 00 00 fd 00 28 3c 4b 4b 10 01 0a 20 20 20 20 20 20
descriptor 3:    00 00 00 fe 00 42 4f 45 20 48 46 0a 20 20 20 20 20 20
descriptor 4:    00 00 00 fe 00 4e 56 31 33 33 57 55 4d 2d 4e 36 31 0a
extensions:      00
checksum:        d7

EDID version: 1.4
Manufacturer: BOE Model 964 Serial Number --
Made in week 22 of 2020
Digital display
8 bits per primary color channel
DisplayPort interface
Maximum image size: 29 cm x 18 cm
Gamma: 2.20
Supported color formats: RGB 4:4:4
First detailed timing includes the native pixel format and preferred refresh rate
Display is continuous frequency
Display x,y Chromaticity:
  Red:   0.6542, 0.3164
  Green: 0.2978, 0.6113
  Blue:  0.1552, 0.0566
  White: 0.3183, 0.3212
Established timings supported:
Standard timings supported:
Detailed mode: Clock 154.760 MHz, 286 mm x 179 mm
               1920 1968 2000 2080 hborder 0
               1200 1203 1209 1240 vborder 0
               +hsync -vsync 
               VertFreq: 60 Hz, HorFreq: 74403 Hz
Monitor ranges (bare limits): 40-60Hz V, 75-75kHz H, max dotclock 160MHz
ASCII string: BOE HF
ASCII string: NV133WUM-N61
Checksum: 0xd7 (valid)
EDID block does NOT conform to EDID 1.4!
	Missing name descriptor
Warning: One or more of the timings is out of range of the Monitor Ranges:
  Vertical Freq: 60 - 60 Hz
  Horizontal Freq: 74403 - 74403 Hz
  Maximum Clock: 154.760 MHz
