edid-decode (hex):

00 ff ff ff ff ff ff 00 30 ae ba 40 00 00 00 00
01 1d 01 04 a5 22 13 78 e2 4a 05 96 5e 59 95 2a
23 50 54 00 00 00 01 01 01 01 01 01 01 01 01 01
01 01 01 01 01 01 c8 3a 80 18 71 38 3c 40 30 20
36 00 58 c2 10 00 00 1a 07 2f 80 18 71 38 3c 40
30 20 36 00 58 c2 10 00 00 1a 00 00 00 0f 00 d1
09 3c d1 09 30 1e 0a 00 09 e5 c2 08 00 00 00 fe
00 4e 56 31 35 36 46 48 4d 2d 54 30 37 0a 00 45

00 ff ff ff ff ff ff 00 30 ae ba 40 00 00 00 00
01 1d 01 04 a5 22 13 78 e2 4a 05 96 5e 59 95 2a
23 50 54 00 00 00 01 01 01 01 01 01 01 01 01 01
01 01 01 01 01 01 c8 3a 80 18 71 38 3c 40 30 20
36 00 58 c2 10 00 00 1a 07 2f 80 18 71 38 3c 40
30 20 36 00 58 c2 10 00 00 1a 00 00 00 0f 00 d1
09 3c d1 09 30 1e 0a 00 09 e5 c2 08 00 00 00 fe
00 4e 56 31 35 36 46 48 4d 2d 54 30 37 0a 00 45

----------------

Block 0, Base EDID:
  EDID Structure Version & Revision: 1.4
  Vendor & Product Identification:
    Manufacturer: LEN
    Model: 16570
    Made in: week 1 of 2019
  Basic Display Parameters & Features:
    Digital display
    Bits per primary color channel: 8
    DisplayPort interface
    Maximum image size: 34 cm x 19 cm
    Gamma: 2.20
    DPMS levels: Standby Suspend Off
    Supported color formats: RGB 4:4:4
    First detailed timing includes the native pixel format and preferred refresh rate
  Color Characteristics:
    Red  : 0.5869, 0.3671
    Green: 0.3496, 0.5839
    Blue : 0.1640, 0.1367
    White: 0.3134, 0.3291
  Established Timings I & II: none
  Standard Timings: none
  Detailed Timing Descriptors:
    DTD 1:  1920x1080   60.000000 Hz  16:9     68.400 kHz    150.480000 MHz (344 mm x 194 mm)
                 Hfront   48 Hsync  32 Hback  200 Hpol P
                 Vfront    3 Vsync   6 Vback   51 Vpol N
    DTD 2:  1920x1080   48.002392 Hz  16:9     54.723 kHz    120.390000 MHz (344 mm x 194 mm)
                 Hfront   48 Hsync  32 Hback  200 Hpol P
                 Vfront    3 Vsync   6 Vback   51 Vpol N
    Manufacturer-Specified Display Descriptor (0x0f): 00 0f 00 d1 09 3c d1 09 30 1e 0a 00 09 e5 c2 08 '.....<..0.......'
    Alphanumeric Data String: 'NV156FHM-T07'
Checksum: 0x45

----------------

Block 1, Unknown EDID Extension Block 0x00:
  00 ff ff ff ff ff ff 00 30 ae ba 40 00 00 00 00 '........0..@....'
  01 1d 01 04 a5 22 13 78 e2 4a 05 96 5e 59 95 2a '.....".x.J..^Y.*'
  23 50 54 00 00 00 01 01 01 01 01 01 01 01 01 01 '#PT.............'
  01 01 01 01 01 01 c8 3a 80 18 71 38 3c 40 30 20 '.......:..q8<@0 '
  36 00 58 c2 10 00 00 1a 07 2f 80 18 71 38 3c 40 '6.X....../..q8<@'
  30 20 36 00 58 c2 10 00 00 1a 00 00 00 0f 00 d1 '0 6.X...........'
  09 3c d1 09 30 1e 0a 00 09 e5 c2 08 00 00 00 fe '.<..0...........'
  00 4e 56 31 35 36 46 48 4d 2d 54 30 37 0a 00 45 '.NV156FHM-T07..E'
Checksum: 0x45

----------------

Warnings:

Block 0, Base EDID:
  Missing Display Product Name.

Failures:

Block 1, Base EDID:
  Unknown Extension Block.
EDID:
  Base EDID: EDID specified 0 extension block(s), but found 1 extension block(s).

EDID conformity: FAIL
