edid-decode (hex):

00 ff ff ff ff ff ff 00 4d d9 fa 06 00 00 00 00
04 13 01 03 80 26 15 78 f2 ce 50 a3 57 4c 99 26
0f 50 54 00 00 00 01 01 01 01 01 01 01 01 01 01
01 01 01 01 01 01 d0 26 40 c2 60 84 18 30 20 40
48 00 7c d2 10 00 00 00 60 20 40 c2 60 84 18 30
20 40 48 00 7c d2 10 00 00 00 00 00 00 00 00 00
00 00 00 00 00 00 00 00 00 00 00 00 00 00 00 00
00 00 00 00 00 00 00 00 00 00 00 00 00 00 00 dc

----------------

Block 0, Base EDID:
  EDID Structure Version & Revision: 1.3
  Vendor & Product Identification:
    Manufacturer: SNY
    Model: 1786
    Made in: week 4 of 2009
  Basic Display Parameters & Features:
    Digital display
    Maximum image size: 38 cm x 21 cm
    Gamma: 2.20
    DPMS levels: Standby Suspend Off
    Non-RGB color display
    First detailed timing is preferred timing
  Color Characteristics:
    Red  : 0.6396, 0.3398
    Green: 0.2998, 0.5996
    Blue : 0.1494, 0.0595
    White: 0.3125, 0.3281
  Established Timings I & II: none
  Standard Timings: none
  Detailed Timing Descriptors:
    DTD 1:  1600x900    59.940 Hz  16:9    55.385 kHz  99.360 MHz (analog composite, sync-on-green, 380 mm x 210 mm)
                 Hfront   32 Hsync  64 Hback  98 Hpol N
                 Vfront    4 Vsync   8 Vback  12 Vpol N
    DTD 2:  1600x900    49.998 Hz  16:9    46.198 kHz  82.880 MHz (analog composite, sync-on-green, 380 mm x 210 mm)
                 Hfront   32 Hsync  64 Hback  98 Hpol N
                 Vfront    4 Vsync   8 Vback  12 Vpol N
    Empty Descriptor
    Empty Descriptor
Checksum: 0xdc
