edid-decode (hex):

00 ff ff ff ff ff ff 00 30 e4 c5 02 00 00 00 00
01 14 01 04 95 26 15 78 02 5f 35 a4 58 56 9e 26
0f 50 54 00 00 00 01 01 01 01 01 01 01 01 01 01
01 01 01 01 01 01 02 3a 80 18 71 38 2d 40 58 2c
45 00 7e d7 10 00 00 1b d4 9a 80 c8 73 38 24 41
30 20 35 00 7e d7 10 00 00 1b d4 9a 80 c8 73 38
a8 40 30 20 35 00 7e d7 10 00 00 1b d4 9a 80 c8
73 38 40 40 30 20 35 00 7e d7 10 00 00 1b 01 27

00 00 04 00 00 00 00 00 00 00 00 00 00 00 00 00
00 00 00 00 00 00 00 00 00 00 00 00 00 00 00 00
00 00 00 00 00 00 00 00 00 00 00 00 00 00 00 00
00 00 00 00 00 00 00 00 00 00 00 00 00 00 00 00
00 00 00 00 00 00 00 00 00 00 00 00 00 00 00 00
00 00 00 00 00 00 00 00 00 00 00 00 00 00 00 00
00 00 00 00 00 00 00 00 00 00 00 00 00 00 00 00
00 00 00 00 00 00 00 00 00 00 00 00 00 00 00 fc

----------------

Block 0, Base EDID:
  EDID Structure Version & Revision: 1.4
  Vendor & Product Identification:
    Manufacturer: LGD
    Model: 709
    Made in: week 1 of 2010
  Basic Display Parameters & Features:
    Digital display
    Bits per primary color channel: 6
    DisplayPort interface
    Maximum image size: 38 cm x 21 cm
    Gamma: 2.20
    Supported color formats: RGB 4:4:4
    First detailed timing includes the native pixel format and preferred refresh rate
  Color Characteristics:
    Red  : 0.6416, 0.3447
    Green: 0.3388, 0.6201
    Blue : 0.1484, 0.0615
    White: 0.3134, 0.3291
  Established Timings I & II: none
  Standard Timings: none
  Detailed Timing Descriptors:
    DTD 1:  1920x1080   60.000000 Hz  16:9     67.500 kHz    148.500000 MHz (382 mm x 215 mm)
                 Hfront   88 Hsync  44 Hback  148 Hpol P
                 Vfront    4 Vsync   5 Vback   36 Vpol N
    DTD 2:  1920x1080  100.031900 Hz  16:9    137.244 kHz    396.360000 MHz (382 mm x 215 mm)
                 Hfront   48 Hsync  32 Hback  888 Hpol P
                 Vfront    3 Vsync   5 Vback  284 Vpol N
    DTD 3:  1920x1080  109.970967 Hz  16:9    137.244 kHz    396.360000 MHz (382 mm x 215 mm)
                 Hfront   48 Hsync  32 Hback  888 Hpol P
                 Vfront    3 Vsync   5 Vback  160 Vpol N
    DTD 4:  1920x1080  119.968328 Hz  16:9    137.244 kHz    396.360000 MHz (382 mm x 215 mm)
                 Hfront   48 Hsync  32 Hback  888 Hpol P
                 Vfront    3 Vsync   5 Vback   56 Vpol N
  Extension blocks: 1
Checksum: 0x27

----------------

Block 1, Unknown EDID Extension Block 0x00:
  00 00 04 00 00 00 00 00 00 00 00 00 00 00 00 00 '................'
  00 00 00 00 00 00 00 00 00 00 00 00 00 00 00 00 '................'
  00 00 00 00 00 00 00 00 00 00 00 00 00 00 00 00 '................'
  00 00 00 00 00 00 00 00 00 00 00 00 00 00 00 00 '................'
  00 00 00 00 00 00 00 00 00 00 00 00 00 00 00 00 '................'
  00 00 00 00 00 00 00 00 00 00 00 00 00 00 00 00 '................'
  00 00 00 00 00 00 00 00 00 00 00 00 00 00 00 00 '................'
  00 00 00 00 00 00 00 00 00 00 00 00 00 00 00 fc '................'
Checksum: 0xfc

----------------

Warnings:

Block 0, Base EDID:
  Detailed Timing Descriptor #1: DTD is similar but not identical to VIC 16.

Failures:

Block 0, Base EDID:
  Missing Display Product Name.
Block 1, Base EDID:
  Unknown Extension Block.

EDID conformity: FAIL
