
EDID (hex):
00ffffffffffff0034a9a29600000000
ff180104a51e1178029725a653539c25
0b505400000001010101010101010101
0101010101019a6400f0a0a05d505820
c50426a51000001e976400f0a0a0dc51
5820c50426a51000001e000000fd0028
3e595e1a010a202020202020000000fc
005656583133543034334e30300a0052

Extracted contents:
header:          00 ff ff ff ff ff ff 00
serial number:   34 a9 a2 96 00 00 00 00 ff 18
version:         01 04
basic params:    a5 1e 11 78 02
chroma info:     97 25 a6 53 53 9c 25 0b 50 54
established:     00 00 00
standard:        01 01 01 01 01 01 01 01 01 01 01 01 01 01 01 01
descriptor 1:    9a 64 00 f0 a0 a0 5d 50 58 20 c5 04 26 a5 10 00 00 1e
descriptor 2:    97 64 00 f0 a0 a0 dc 51 58 20 c5 04 26 a5 10 00 00 1e
descriptor 3:    00 00 00 fd 00 28 3e 59 5e 1a 01 0a 20 20 20 20 20 20
descriptor 4:    00 00 00 fc 00 56 56 58 31 33 54 30 34 33 4e 30 30 0a
extensions:      00
checksum:        52

EDID version: 1.4
Manufacturer: MEI Model 96a2 Serial Number --
Model year 2014
Digital display
8 bits per primary color channel
DisplayPort interface
Maximum image size: 30 cm x 17 cm
Gamma: 2.20
Supported color formats: RGB 4:4:4
First detailed timing includes the native pixel format and preferred refresh rate
Display x,y Chromaticity:
  Red:   0.6503, 0.3251
  Green: 0.3251, 0.6123
  Blue:  0.1445, 0.0449
  White: 0.3134, 0.3291
Established timings supported:
Standard timings supported:
Detailed mode: Clock 257.540 MHz, 294 mm x 165 mm
               2560 2648 2680 2800 hborder 0
               1440 1468 1473 1533 vborder 0
               +hsync +vsync 
               VertFreq: 59 Hz, HorFreq: 91978 Hz
Detailed mode: Clock 257.510 MHz, 294 mm x 165 mm
               2560 2648 2680 2800 hborder 0
               1440 1468 1473 1916 vborder 0
               +hsync +vsync 
               VertFreq: 47 Hz, HorFreq: 91967 Hz
Monitor ranges (bare limits): 40-62Hz V, 89-94kHz H, max dotclock 260MHz
Monitor name: VVX13T043N00
Checksum: 0x52 (valid)
