edid-decode (hex):

00 ff ff ff ff ff ff 00 30 ae 10 40 00 00 00 00
00 12 01 03 80 1a 10 78 ea 86 85 95 57 4d 8d 25
24 50 54 00 00 00 01 01 01 01 01 01 01 01 01 01
01 01 01 01 01 01 5c 1d 00 f2 50 20 17 30 4a 3a
36 00 05 a3 10 00 00 19 5c 1d 00 f2 50 20 17 30
4a 3a 36 00 05 a3 10 00 00 19 00 00 00 0f 00 81
0a 3c 81 0a 3c 14 00 00 09 e5 9e 08 00 00 00 fe
00 48 56 31 32 31 57 58 34 2d 31 32 30 0a 00 6c

----------------

Block 0, Base EDID:
  EDID Structure Version & Revision: 1.3
  Vendor & Product Identification:
    Manufacturer: LEN
    Model: 16400
    Made in: 2008
  Basic Display Parameters & Features:
    Digital display
    Maximum image size: 26 cm x 16 cm
    Gamma: 2.20
    DPMS levels: Standby Suspend Off
    RGB color display
    First detailed timing is the preferred timing
  Color Characteristics:
    Red  : 0.5839, 0.3398
    Green: 0.3017, 0.5527
    Blue : 0.1464, 0.1406
    White: 0.3134, 0.3291
  Established Timings I & II: none
  Standard Timings: none
  Detailed Timing Descriptors:
    DTD 1:  1280x800    60.002906 Hz   8:5     49.382 kHz     75.160000 MHz (261 mm x 163 mm)
                 Hfront   74 Hsync  58 Hback  110 Hpol N
                 Vfront    3 Vsync   6 Vback   14 Vpol N
    DTD 2:  1280x800    60.002906 Hz   8:5     49.382 kHz     75.160000 MHz (261 mm x 163 mm)
                 Hfront   74 Hsync  58 Hback  110 Hpol N
                 Vfront    3 Vsync   6 Vback   14 Vpol N
    Manufacturer-Specified Display Descriptor (0x0f): 00 0f 00 81 0a 3c 81 0a 3c 14 00 00 09 e5 9e 08 '.....<..<.......'
    Alphanumeric Data String: 'HV121WX4-120'
Checksum: 0x6c

----------------

Failures:

Block 0, Base EDID:
  Missing Display Product Name.
  Missing Display Range Limits Descriptor.

EDID conformity: FAIL
