
EDID (hex):
00ffffffffffff0026cff40300000000
131c0104a51f1178023f62945e569428
214f5800000001010101010101010101
010101010101c83680cc703814403020
360035ad1000001a862480cc70381440
6464440535ad1000001a000000fe0053
54415252590a202020202020000000fe
004248313430454132535242200a00a0

Extracted contents:
header:          00 ff ff ff ff ff ff 00
serial number:   26 cf f4 03 00 00 00 00 13 1c
version:         01 04
basic params:    a5 1f 11 78 02
chroma info:     3f 62 94 5e 56 94 28 21 4f 58
established:     00 00 00
standard:        01 01 01 01 01 01 01 01 01 01 01 01 01 01 01 01
descriptor 1:    c8 36 80 cc 70 38 14 40 30 20 36 00 35 ad 10 00 00 1a
descriptor 2:    86 24 80 cc 70 38 14 40 64 64 44 05 35 ad 10 00 00 1a
descriptor 3:    00 00 00 fe 00 53 54 41 52 52 59 0a 20 20 20 20 20 20
descriptor 4:    00 00 00 fe 00 42 48 31 34 30 45 41 32 53 52 42 20 0a
extensions:      00
checksum:        a0

EDID version: 1.4
Manufacturer: IVO Model 3f4 Serial Number --
Made in week 19 of 2018
Digital display
8 bits per primary color channel
DisplayPort interface
Maximum image size: 31 cm x 17 cm
Gamma: 2.20
Supported color formats: RGB 4:4:4
First detailed timing includes the native pixel format and preferred refresh rate
Display x,y Chromaticity:
  Red:   0.5781, 0.3701
  Green: 0.3388, 0.5810
  Blue:  0.1572, 0.1308
  White: 0.3085, 0.3457
Established timings supported:
Standard timings supported:
Detailed mode: Clock 140.240 MHz, 309 mm x 173 mm
               1920 1968 2000 2124 hborder 0
               1080 1083 1089 1100 vborder 0
               +hsync -vsync 
               VertFreq: 60 Hz, HorFreq: 66026 Hz
Detailed mode: Clock 93.500 MHz, 309 mm x 173 mm
               1920 2020 2120 2124 hborder 0
               1080 1100 1120 1100 vborder 0
               +hsync -vsync 
               VertFreq: 40 Hz, HorFreq: 44020 Hz
ASCII string: STARRY
ASCII string: BH140EA2SRB 
Checksum: 0xa0 (valid)
EDID block does NOT conform to EDID 1.4!
	Missing name descriptor
	Missing monitor ranges
