
EDID (hex):
00ffffffffffff00047212058a1c2074
2a1b010380301b78ee0051a55552a028
0f5054b30c00714f818081c081009500
b300d1c00101023a801871382d40582c
4500dd0c1100001e010000f900384c1f
4b12000ad40c11202020000000fc004b
32323248514c0a2020202020000000ff
005435584545303031323432320a0035

Extracted contents:
header:          00 ff ff ff ff ff ff 00
serial number:   04 72 12 05 8a 1c 20 74 2a 1b
version:         01 03
basic params:    80 30 1b 78 ee
chroma info:     00 51 a5 55 52 a0 28 0f 50 54
established:     b3 0c 00
standard:        71 4f 81 80 81 c0 81 00 95 00 b3 00 d1 c0 01 01
descriptor 1:    02 3a 80 18 71 38 2d 40 58 2c 45 00 dd 0c 11 00 00 1e
descriptor 2:    01 00 00 f9 00 38 4c 1f 4b 12 00 0a d4 0c 11 20 20 20
descriptor 3:    00 00 00 fc 00 4b 32 32 32 48 51 4c 0a 20 20 20 20 20
descriptor 4:    00 00 00 ff 00 54 35 58 45 45 30 30 31 32 34 32 32 0a
extensions:      00
checksum:        35

EDID version: 1.3
Manufacturer: ACR Model 512 Serial Number --
Made in week 42 of 2017
Digital display
Maximum image size: 48 cm x 27 cm
Gamma: 2.20
DPMS levels: Standby Suspend Off
RGB color display
Default (sRGB) color space is primary color space
First detailed timing is preferred timing
Display x,y Chromaticity:
  Red:   0.6445, 0.3320
  Green: 0.3203, 0.6250
  Blue:  0.1572, 0.0595
  White: 0.3125, 0.3291
Established timings supported:
  720x400@70Hz 9:5 HorFreq: 31469 Hz Clock: 28.320 MHz
  640x480@60Hz 4:3 HorFreq: 31469 Hz Clock: 25.175 MHz
  640x480@67Hz 4:3 HorFreq: 35000 Hz Clock: 30.240 MHz
  800x600@56Hz 4:3 HorFreq: 35200 Hz Clock: 36.000 MHz
  800x600@60Hz 4:3 HorFreq: 37900 Hz Clock: 40.000 MHz
  1024x768@60Hz 4:3 HorFreq: 48400 Hz Clock: 65.000 MHz
  1024x768@70Hz 4:3 HorFreq: 56500 Hz Clock: 75.000 MHz
Standard timings supported:
  1152x864@75Hz 4:3 HorFreq: 67500 Hz Clock: 108.000 MHz
  1280x1024@60Hz 5:4 HorFreq: 64000 Hz Clock: 108.000 MHz
  1280x720@60Hz 16:9
  1280x800@60Hz 16:10
  1440x900@60Hz 16:10 HorFreq: 55500 Hz Clock: 88.750 MHz
  1680x1050@60Hz 16:10 HorFreq: 64700 Hz Clock: 119.000 MHz
  1920x1080@60Hz 16:9
Detailed mode: Clock 148.500 MHz, 477 mm x 268 mm
               1920 2008 2052 2200 hborder 0
               1080 1084 1089 1125 vborder 0
               +hsync +vsync 
               VertFreq: 60 Hz, HorFreq: 67500 Hz
Detailed mode: Clock 0.010 MHz, 468 mm x 268 mm
                  0   75   93  249 hborder 32
                312  344  376 4228 vborder 32
               -hsync -vsync analog composite field sequential L/R
               VertFreq: 0 Hz, HorFreq: 40 Hz
Monitor name: K222HQL
Serial number: --
Checksum: 0x35 (valid)
EDID block does NOT conform to EDID 1.3!
	sRGB is signaled, but the chromaticities do not match
	Missing monitor ranges
