edid-decode (hex):

00 ff ff ff ff ff ff 00 30 ae a9 40 00 00 00 00
00 1e 01 04 a5 1f 11 78 e2 28 65 97 59 54 8e 27
1e 50 54 00 00 00 01 01 01 01 01 01 01 01 01 01
01 01 01 01 01 01 b4 3b 80 4a 71 38 34 40 30 20
35 00 35 ad 10 00 00 18 b4 3b 80 4a 71 38 34 40
30 20 35 00 35 ad 10 00 00 18 00 00 00 0f 00 d1
09 3c d1 09 3c 1e 0a 00 0d ae f5 14 00 00 00 fe
00 4e 31 34 30 48 43 4e 2d 45 41 31 0a 20 00 dc

00 ff ff ff ff ff ff 00 30 ae a9 40 00 00 00 00
00 1e 01 04 a5 1f 11 78 e2 28 65 97 59 54 8e 27
1e 50 54 00 00 00 01 01 01 01 01 01 01 01 01 01
01 01 01 01 01 01 b4 3b 80 4a 71 38 34 40 30 20
35 00 35 ad 10 00 00 18 b4 3b 80 4a 71 38 34 40
30 20 35 00 35 ad 10 00 00 18 00 00 00 0f 00 d1
09 3c d1 09 3c 1e 0a 00 0d ae f5 14 00 00 00 fe
00 4e 31 34 30 48 43 4e 2d 45 41 31 0a 20 00 dc

----------------

Block 0, Base EDID:
  EDID Structure Version & Revision: 1.4
  Vendor & Product Identification:
    Manufacturer: LEN
    Model: 16553
    Made in: 2020
  Basic Display Parameters & Features:
    Digital display
    Bits per primary color channel: 8
    DisplayPort interface
    Maximum image size: 31 cm x 17 cm
    Gamma: 2.20
    DPMS levels: Standby Suspend Off
    Supported color formats: RGB 4:4:4
    First detailed timing includes the native pixel format and preferred refresh rate
  Color Characteristics:
    Red  : 0.5898, 0.3496
    Green: 0.3300, 0.5546
    Blue : 0.1533, 0.1191
    White: 0.3134, 0.3291
  Established Timings I & II: none
  Standard Timings: none
  Detailed Timing Descriptors:
    DTD 1:  1920x1080   60.007852 Hz  16:9     67.929 kHz    152.840000 MHz (309 mm x 173 mm)
                 Hfront   48 Hsync  32 Hback  250 Hpol N
                 Vfront    3 Vsync   5 Vback   44 Vpol N
    DTD 2:  1920x1080   60.007852 Hz  16:9     67.929 kHz    152.840000 MHz (309 mm x 173 mm)
                 Hfront   48 Hsync  32 Hback  250 Hpol N
                 Vfront    3 Vsync   5 Vback   44 Vpol N
    Manufacturer-Specified Display Descriptor (0x0f): 00 0f 00 d1 09 3c d1 09 3c 1e 0a 00 0d ae f5 14 '.....<..<.......'
    Alphanumeric Data String: 'N140HCN-EA1'
Checksum: 0xdc

----------------

Block 1, Unknown EDID Extension Block 0x00:
  00 ff ff ff ff ff ff 00 30 ae a9 40 00 00 00 00 '........0..@....'
  00 1e 01 04 a5 1f 11 78 e2 28 65 97 59 54 8e 27 '.......x.(e.YT.''
  1e 50 54 00 00 00 01 01 01 01 01 01 01 01 01 01 '.PT.............'
  01 01 01 01 01 01 b4 3b 80 4a 71 38 34 40 30 20 '.......;.Jq84@0 '
  35 00 35 ad 10 00 00 18 b4 3b 80 4a 71 38 34 40 '5.5......;.Jq84@'
  30 20 35 00 35 ad 10 00 00 18 00 00 00 0f 00 d1 '0 5.5...........'
  09 3c d1 09 3c 1e 0a 00 0d ae f5 14 00 00 00 fe '.<..<...........'
  00 4e 31 34 30 48 43 4e 2d 45 41 31 0a 20 00 dc '.N140HCN-EA1. ..'
Checksum: 0xdc

----------------

Warnings:

Block 0, Base EDID:
  Missing Display Product Name.

Failures:

Block 1, Base EDID:
  Unknown Extension Block.
EDID:
  Base EDID: EDID specified 0 extension block(s), but found 1 extension block(s).

EDID conformity: FAIL
