edid-decode (hex):

00 ff ff ff ff ff ff 00 30 ae a9 40 00 00 00 00
20 1d 01 04 a5 1f 11 78 e2 c8 d5 95 5d 59 94 29
23 50 54 00 00 00 01 01 01 01 01 01 01 01 01 01
01 01 01 01 01 01 fa 37 80 de 70 38 23 40 30 20
36 00 35 ae 10 00 00 1a c8 2c 80 de 70 38 23 40
30 20 36 00 35 ae 10 00 00 1a 00 00 00 0f 00 d1
09 3c d1 09 30 19 0a 00 09 e5 c7 08 00 00 00 fe
00 4e 56 31 34 30 46 48 4d 2d 4e 34 38 0a 00 23

00 ff ff ff ff ff ff 00 30 ae a9 40 00 00 00 00
20 1d 01 04 a5 1f 11 78 e2 c8 d5 95 5d 59 94 29
23 50 54 00 00 00 01 01 01 01 01 01 01 01 01 01
01 01 01 01 01 01 fa 37 80 de 70 38 23 40 30 20
36 00 35 ae 10 00 00 1a c8 2c 80 de 70 38 23 40
30 20 36 00 35 ae 10 00 00 1a 00 00 00 0f 00 d1
09 3c d1 09 30 19 0a 00 09 e5 c7 08 00 00 00 fe
00 4e 56 31 34 30 46 48 4d 2d 4e 34 38 0a 00 23

----------------

Block 0, Base EDID:
  EDID Structure Version & Revision: 1.4
  Vendor & Product Identification:
    Manufacturer: LEN
    Model: 16553
    Made in: week 32 of 2019
  Basic Display Parameters & Features:
    Digital display
    Bits per primary color channel: 8
    DisplayPort interface
    Maximum image size: 31 cm x 17 cm
    Gamma: 2.20
    DPMS levels: Standby Suspend Off
    Supported color formats: RGB 4:4:4
    First detailed timing includes the native pixel format and preferred refresh rate
  Color Characteristics:
    Red  : 0.5849, 0.3632
    Green: 0.3496, 0.5781
    Blue : 0.1630, 0.1376
    White: 0.3134, 0.3291
  Established Timings I & II: none
  Standard Timings: none
  Detailed Timing Descriptors:
    DTD 1:  1920x1080   60.000084 Hz  16:9     66.900 kHz    143.300000 MHz (309 mm x 174 mm)
                 Hfront   48 Hsync  32 Hback  142 Hpol P
                 Vfront    3 Vsync   6 Vback   26 Vpol N
    DTD 2:  1920x1080   48.000067 Hz  16:9     53.520 kHz    114.640000 MHz (309 mm x 174 mm)
                 Hfront   48 Hsync  32 Hback  142 Hpol P
                 Vfront    3 Vsync   6 Vback   26 Vpol N
    Manufacturer-Specified Display Descriptor (0x0f): 00 0f 00 d1 09 3c d1 09 30 19 0a 00 09 e5 c7 08 '.....<..0.......'
    Alphanumeric Data String: 'NV140FHM-N48'
Checksum: 0x23

----------------

Block 1, Unknown EDID Extension Block 0x00:
  00 ff ff ff ff ff ff 00 30 ae a9 40 00 00 00 00 '........0..@....'
  20 1d 01 04 a5 1f 11 78 e2 c8 d5 95 5d 59 94 29 ' ......x....]Y.)'
  23 50 54 00 00 00 01 01 01 01 01 01 01 01 01 01 '#PT.............'
  01 01 01 01 01 01 fa 37 80 de 70 38 23 40 30 20 '.......7..p8#@0 '
  36 00 35 ae 10 00 00 1a c8 2c 80 de 70 38 23 40 '6.5......,..p8#@'
  30 20 36 00 35 ae 10 00 00 1a 00 00 00 0f 00 d1 '0 6.5...........'
  09 3c d1 09 30 19 0a 00 09 e5 c7 08 00 00 00 fe '.<..0...........'
  00 4e 56 31 34 30 46 48 4d 2d 4e 34 38 0a 00 23 '.NV140FHM-N48..#'
Checksum: 0x23

----------------

Warnings:

Block 0, Base EDID:
  Missing Display Product Name.

Failures:

Block 1, Base EDID:
  Unknown Extension Block.
EDID:
  Base EDID: EDID specified 0 extension block(s), but found 1 extension block(s).

EDID conformity: FAIL
