edid-decode (hex):

00 ff ff ff ff ff ff 00 30 ae a9 40 00 00 00 00
00 1c 01 04 a5 1f 11 78 e2 e0 85 a3 54 4e 9b 26
0e 50 54 00 00 00 01 01 01 01 01 01 01 01 01 01
01 01 01 01 01 01 29 36 80 a0 70 38 1f 40 30 20
35 00 35 ad 10 00 00 1a 29 36 80 a0 70 38 1f 40
30 20 35 00 35 ad 10 00 00 1a 00 00 00 0f 00 d1
09 3c d1 09 3c 28 0a 00 30 e4 08 06 00 00 00 fe
00 4c 50 31 34 30 57 46 39 2d 53 50 46 31 00 b9

00 ff ff ff ff ff ff 00 30 ae a9 40 00 00 00 00
00 1c 01 04 a5 1f 11 78 e2 e0 85 a3 54 4e 9b 26
0e 50 54 00 00 00 01 01 01 01 01 01 01 01 01 01
01 01 01 01 01 01 29 36 80 a0 70 38 1f 40 30 20
35 00 35 ad 10 00 00 1a 29 36 80 a0 70 38 1f 40
30 20 35 00 35 ad 10 00 00 1a 00 00 00 0f 00 d1
09 3c d1 09 3c 28 0a 00 30 e4 08 06 00 00 00 fe
00 4c 50 31 34 30 57 46 39 2d 53 50 46 31 00 b9

----------------

Block 0, Base EDID:
  EDID Structure Version & Revision: 1.4
  Vendor & Product Identification:
    Manufacturer: LEN
    Model: 16553
    Made in: 2018
  Basic Display Parameters & Features:
    Digital display
    Bits per primary color channel: 8
    DisplayPort interface
    Maximum image size: 31 cm x 17 cm
    Gamma: 2.20
    DPMS levels: Standby Suspend Off
    Supported color formats: RGB 4:4:4
    First detailed timing includes the native pixel format and preferred refresh rate
  Color Characteristics:
    Red  : 0.6396, 0.3300
    Green: 0.3046, 0.6054
    Blue : 0.1503, 0.0546
    White: 0.3134, 0.3291
  Established Timings I & II: none
  Standard Timings: none
  Detailed Timing Descriptors:
    DTD 1:  1920x1080   59.998788 Hz  16:9     66.659 kHz    138.650000 MHz (309 mm x 173 mm)
                 Hfront   48 Hsync  32 Hback   80 Hpol P
                 Vfront    3 Vsync   5 Vback   23 Vpol N
    DTD 2:  1920x1080   59.998788 Hz  16:9     66.659 kHz    138.650000 MHz (309 mm x 173 mm)
                 Hfront   48 Hsync  32 Hback   80 Hpol P
                 Vfront    3 Vsync   5 Vback   23 Vpol N
    Manufacturer-Specified Display Descriptor (0x0f): 00 0f 00 d1 09 3c d1 09 3c 28 0a 00 30 e4 08 06 '.....<..<(..0...'
    Alphanumeric Data String: 'LP140WF9-SPF1'
Checksum: 0xb9

----------------

Block 1, Unknown EDID Extension Block 0x00:
  00 ff ff ff ff ff ff 00 30 ae a9 40 00 00 00 00 '........0..@....'
  00 1c 01 04 a5 1f 11 78 e2 e0 85 a3 54 4e 9b 26 '.......x....TN.&'
  0e 50 54 00 00 00 01 01 01 01 01 01 01 01 01 01 '.PT.............'
  01 01 01 01 01 01 29 36 80 a0 70 38 1f 40 30 20 '......)6..p8.@0 '
  35 00 35 ad 10 00 00 1a 29 36 80 a0 70 38 1f 40 '5.5.....)6..p8.@'
  30 20 35 00 35 ad 10 00 00 1a 00 00 00 0f 00 d1 '0 5.5...........'
  09 3c d1 09 3c 28 0a 00 30 e4 08 06 00 00 00 fe '.<..<(..0.......'
  00 4c 50 31 34 30 57 46 39 2d 53 50 46 31 00 b9 '.LP140WF9-SPF1..'
Checksum: 0xb9

----------------

Warnings:

Block 0, Base EDID:
  Missing Display Product Name.

Failures:

Block 1, Base EDID:
  Unknown Extension Block.
EDID:
  Base EDID: EDID specified 0 extension block(s), but found 1 extension block(s).

EDID conformity: FAIL
