edid-decode (hex):

00 ff ff ff ff ff ff 00 30 64 0d 00 08 00 00 00
08 0f 01 01 6c 1e 17 78 ec a8 e0 99 57 4b 92 25
1c 50 54 bf ee 00 31 4a 61 46 61 4a 01 01 01 01
01 01 01 01 01 01 00 00 00 fc 00 4c 43 44 20 4d
6f 6e 69 74 6f 72 20 31 00 00 00 fc 00 35 22 0a
20 20 20 20 20 20 20 20 20 20 0d 19 00 30 41 00
23 30 20 60 33 00 30 e4 10 00 00 10 00 00 00 fd
00 32 4b 1e 3f 0a 20 20 20 20 20 20 20 20 00 0a

----------------

Block 0, Base EDID:
  EDID Structure Version & Revision: 1.1
  Vendor & Product Identification:
    Manufacturer: LCD
    Model: 13
    Serial Number: ...
    Made in: week 8 of 2005
  Basic Display Parameters & Features:
    Analog display
    Input voltage level: 0.7/0.7 V
    Blank level equals black level
    Sync: Separate Composite
    Maximum image size: 30 cm x 23 cm
    Gamma: 2.20
    DPMS levels: Standby Suspend Off
    RGB color display
    Default (sRGB) color space is primary color space
  Color Characteristics:
    Red  : 0.5996, 0.3417
    Green: 0.2949, 0.5703
    Blue : 0.1474, 0.1113
    White: 0.3125, 0.3281
  Established Timings I & II:
    IBM     :   720x400    70.082 Hz   9:5    31.467 kHz  28.320 MHz
    DMT 0x04:   640x480    59.940 Hz   4:3    31.469 kHz  25.175 MHz
    Apple   :   640x480    66.667 Hz   4:3    35.000 kHz  30.240 MHz
    DMT 0x05:   640x480    72.809 Hz   4:3    37.861 kHz  31.500 MHz
    DMT 0x06:   640x480    75.000 Hz   4:3    37.500 kHz  31.500 MHz
    DMT 0x08:   800x600    56.250 Hz   4:3    35.156 kHz  36.000 MHz
    DMT 0x09:   800x600    60.317 Hz   4:3    37.879 kHz  40.000 MHz
    DMT 0x0a:   800x600    72.188 Hz   4:3    48.077 kHz  50.000 MHz
    DMT 0x0b:   800x600    75.000 Hz   4:3    46.875 kHz  49.500 MHz
    Apple   :   832x624    74.551 Hz   4:3    49.726 kHz  57.284 MHz
    DMT 0x10:  1024x768    60.004 Hz   4:3    48.363 kHz  65.000 MHz
    DMT 0x11:  1024x768    70.069 Hz   4:3    56.476 kHz  75.000 MHz
    DMT 0x12:  1024x768    75.029 Hz   4:3    60.023 kHz  78.750 MHz
  Standard Timings:
    Unknown :   640x480    70.000 Hz   4:3
    Unknown :  1024x768    66.000 Hz   4:3
    Unknown :  1024x768    70.000 Hz   4:3
  Detailed Timing Descriptors:
    Display Product Name: 'LCD Monitor 1'
    Display Product Name: '5"'
    DTD 1:  1024x768    60.138 Hz   4:3    48.291 kHz  64.130 MHz (digital composite, 304 mm x 228 mm)
                 Hfront   32 Hsync  96 Hback 176 Hpol N
                 Vfront    3 Vsync   3 Vback  29
  Display Range Limits:
    Monitor ranges (Unknown (0x20)): 50-75 Hz V, 30-63 kHz H, max dotclock 100 MHz
Checksum: 0x0a

----------------

Warnings:

Block 0, Base EDID:
  EDID Structure Version & Revision: EDID 1.1 is deprecated, do not use.

Failures:

Block 0, Base EDID:
  Basic Display Parameters & Features: sRGB is signaled, but the chromaticities do not match.
  Detailed Timing Descriptor #1: Invalid detailed timing descriptor ordering.
  Display Range Limits: Unknown range class (0x20).
  Display Range Limits: Byte 11 is 0x20 instead of 0x0a.

EDID conformity: FAIL
