
EDID (hex):
00ffffffffffff00367f030003000000
000c010490130cff2f0000a057499b26
10484f00000001010101010101010101
010101010101026a00e8a04014607820
d300c0780000001a000000fc004a4449
5f382e395f4c43440000000000fd003b
3c61621c010000000000000000000010
000000000000000000000000000000d9

Extracted contents:
header:          00 ff ff ff ff ff ff 00
serial number:   36 7f 03 00 03 00 00 00 00 0c
version:         01 04
basic params:    90 13 0c ff 2f
chroma info:     00 00 a0 57 49 9b 26 10 48 4f
established:     00 00 00
standard:        01 01 01 01 01 01 01 01 01 01 01 01 01 01 01 01
descriptor 1:    02 6a 00 e8 a0 40 14 60 78 20 d3 00 c0 78 00 00 00 1a
descriptor 2:    00 00 00 fc 00 4a 44 49 5f 38 2e 39 5f 4c 43 44 00 00
descriptor 3:    00 00 00 fd 00 3b 3c 61 62 1c 01 00 00 00 00 00 00 00
descriptor 4:    00 00 00 10 00 00 00 00 00 00 00 00 00 00 00 00 00 00
extensions:      00
checksum:        d9

EDID version: 1.4
Manufacturer: MS_ Model 3 Serial Number --
Digital display
6 bits per primary color channel
Digital interface is not defined
Maximum image size: 19 cm x 12 cm
Gamma is defined in an extension block
DPMS levels: Off
Supported color formats: RGB 4:4:4, YCrCb 4:4:4
Default (sRGB) color space is primary color space
First detailed timing includes the native pixel format and preferred refresh rate
Display is continuous frequency
Display x,y Chromaticity:
  Red:   0.6250, 0.3398
  Green: 0.2851, 0.6054
  Blue:  0.1484, 0.0625
  White: 0.2812, 0.3085
Established timings supported:
Standard timings supported:
Detailed mode: Clock 271.380 MHz, 192 mm x 120 mm
               2560 2680 2712 2792 hborder 0
               1600 1613 1616 1620 vborder 0
               +hsync -vsync 
               VertFreq: 59 Hz, HorFreq: 97199 Hz
Monitor ranges (bare limits): 59-60Hz V, 97-98kHz H, max dotclock 280MHz
Dummy block
Checksum: 0xd9 (valid)
EDID block does NOT conform to EDID 1.4!
	sRGB is signaled, but the chromaticities do not match
	Name descriptor not terminated with a newline
EDID block does not conform at all!
	Bad year of manufacture
	Manufacturer name field contains garbage
