edid-decode (hex):

00 ff ff ff ff ff ff 00 4a 8b 3b 2a 01 01 01 01
17 15 01 03 80 08 0d 78 ea 1e c5 ae 4f 34 b1 26
0e 50 54 00 00 00 01 01 01 01 01 01 01 01 01 01
01 01 01 01 01 01 64 1e d0 04 21 00 2a 50 78 14
e8 00 d0 00 25 00 00 1e e7 0e 58 a0 20 20 25 30
30 20 3a 00 96 c8 00 00 00 1a 72 10 20 a0 20 c0
25 30 30 20 3a 00 88 f0 00 00 00 1a 00 00 00 fc
00 37 39 31 31 44 0a 20 20 20 20 20 20 20 00 69

00 ff ff ff ff ff ff 00 4a 8b 3b 2a 01 01 01 01
17 15 01 03 80 08 0d 78 ea 1e c5 ae 4f 34 b1 26
0e 50 54 00 00 00 01 01 01 01 01 01 01 01 01 01
01 01 01 01 01 01 64 1e d0 04 21 00 2a 50 78 14
e8 00 d0 00 25 00 00 1e e7 0e 58 a0 20 20 25 30
30 20 3a 00 96 c8 00 00 00 1a 72 10 20 a0 20 c0
25 30 30 20 3a 00 88 f0 00 00 00 1a 00 00 00 fc
00 37 39 31 31 44 0a 20 20 20 20 20 20 20 00 69

----------------

Block 0, Base EDID:
  EDID Structure Version & Revision: 1.3
  Vendor & Product Identification:
    Manufacturer: RTK
    Model: 10811
    Serial Number: ...
    Made in: week 23 of 2011
  Basic Display Parameters & Features:
    Digital display
    Maximum image size: 8 cm x 13 cm
    Gamma: 2.20
    DPMS levels: Standby Suspend Off
    RGB color display
    First detailed timing is the preferred timing
  Color Characteristics:
    Red  : 0.6796, 0.3095
    Green: 0.2060, 0.6933
    Blue : 0.1513, 0.0546
    White: 0.3134, 0.3291
  Established Timings I & II: none
  Standard Timings: none
  Detailed Timing Descriptors:
    DTD 1:   720x1280   60.051252 Hz   9:16    79.388 kHz     77.800000 MHz (720 mm x 1280 mm)
                 Hfront  120 Hsync  20 Hback  120 Hpol P
                 Vfront   14 Vsync   8 Vback   20 Vpol P
    DTD 2:   600x800    59.972961 Hz   3:4     50.197 kHz     38.150000 MHz (150 mm x 200 mm)
                 Hfront   48 Hsync  32 Hback   80 Hpol P
                 Vfront    3 Vsync  10 Vback   24 Vpol N
    DTD 3:   544x960    59.981080 Hz  17:30    59.801 kHz     42.100000 MHz (136 mm x 240 mm)
                 Hfront   48 Hsync  32 Hback   80 Hpol P
                 Vfront    3 Vsync  10 Vback   24 Vpol N
    Display Product Name: '7911D'
Checksum: 0x69

----------------

Block 1, Unknown EDID Extension Block 0x00:
  00 ff ff ff ff ff ff 00 4a 8b 3b 2a 01 01 01 01 '........J.;*....'
  17 15 01 03 80 08 0d 78 ea 1e c5 ae 4f 34 b1 26 '.......x....O4.&'
  0e 50 54 00 00 00 01 01 01 01 01 01 01 01 01 01 '.PT.............'
  01 01 01 01 01 01 64 1e d0 04 21 00 2a 50 78 14 '......d...!.*Px.'
  e8 00 d0 00 25 00 00 1e e7 0e 58 a0 20 20 25 30 '....%.....X.  %0'
  30 20 3a 00 96 c8 00 00 00 1a 72 10 20 a0 20 c0 '0 :.......r. . .'
  25 30 30 20 3a 00 88 f0 00 00 00 1a 00 00 00 fc '%00 :...........'
  00 37 39 31 31 44 0a 20 20 20 20 20 20 20 00 69 '.7911D.       .i'
Checksum: 0x69

----------------

Warnings:

Block 0, Base EDID:
  Basic Display Parameters & Features: Dubious maximum image size (8x13 is smaller than 10x10 cm).

Failures:

Block 0, Base EDID:
  Detailed Timing Descriptor #1: Mismatch of image size 720x1280 mm vs display size 80x130 mm.
  Detailed Timing Descriptor #2: Mismatch of image size 150x200 mm vs display size 80x130 mm.
  Detailed Timing Descriptor #3: Mismatch of image size 136x240 mm vs display size 80x130 mm.
  Missing Display Range Limits Descriptor.
Block 1, Base EDID:
  Unknown Extension Block.
EDID:
  Base EDID: The DTD max image size is 720x1280mm, which is larger than the display size 80.0x130.0mm.
  Base EDID: EDID specified 0 extension block(s), but found 1 extension block(s).

EDID conformity: FAIL
