edid-decode (hex):

00 ff ff ff ff ff ff 00 22 6c 74 07 b0 1a 00 00
2f 0c 01 04 a5 24 1b 7d e8 c0 98 9f 57 48 98 26
10 48 4c a4 43 00 31 59 45 59 61 59 81 99 a9 4f
01 01 01 01 01 01 ea 24 00 60 41 00 28 30 30 60
13 00 5e 06 11 00 00 1e 86 3d 00 c0 51 00 30 40
40 a0 13 00 5e 06 11 00 00 1e 1a 4f 40 30 62 b0
32 40 40 c0 13 00 5e 06 11 00 00 1e 00 00 00 fd
00 32 a0 1e 60 15 00 0a 20 20 20 20 20 20 00 9b

00 ff ff ff ff ff ff 00 22 6c 74 07 b0 1a 00 00
2f 0c 01 04 a5 24 1b 7d e8 c0 98 9f 57 48 98 26
10 48 4c a4 43 00 31 59 45 59 61 59 81 99 a9 4f
01 01 01 01 01 01 ea 24 00 60 41 00 28 30 30 60
13 00 5e 06 11 00 00 1e 86 3d 00 c0 51 00 30 40
40 a0 13 00 5e 06 11 00 00 1e 1a 4f 40 30 62 b0
32 40 40 c0 13 00 5e 06 11 00 00 1e 00 00 00 fd
00 32 a0 1e 60 15 00 0a 20 20 20 20 20 20 00 9b

----------------

Block 0, Base EDID:
  EDID Structure Version & Revision: 1.4
  Vendor & Product Identification:
    Manufacturer: HSL
    Model: 1908
    Serial Number: ...
    Made in: week 47 of 2002
  Basic Display Parameters & Features:
    Digital display
    Bits per primary color channel: 8
    DisplayPort interface
    Maximum image size: 36 cm x 27 cm
    Gamma: 2.25
    DPMS levels: Standby Suspend Off
    Supported color formats: RGB 4:4:4, YCrCb 4:4:4
    First detailed timing does not include the native pixel format and preferred refresh rate
  Color Characteristics:
    Red  : 0.6240, 0.3398
    Green: 0.2812, 0.5937
    Blue : 0.1503, 0.0634
    White: 0.2832, 0.2968
  Established Timings I & II:
    IBM     :   720x400    70.081663 Hz   9:5     31.467 kHz     28.320000 MHz
    DMT 0x04:   640x480    59.940476 Hz   4:3     31.469 kHz     25.175000 MHz
    DMT 0x06:   640x480    75.000000 Hz   4:3     37.500 kHz     31.500000 MHz
    DMT 0x0b:   800x600    75.000000 Hz   4:3     46.875 kHz     49.500000 MHz
    DMT 0x12:  1024x768    75.028582 Hz   4:3     60.023 kHz     78.750000 MHz
    DMT 0x24:  1280x1024   75.024675 Hz   5:4     79.976 kHz    135.000000 MHz
  Standard Timings:
    DMT 0x07:   640x480    85.008312 Hz   4:3     43.269 kHz     36.000000 MHz
    DMT 0x0c:   800x600    85.061274 Hz   4:3     53.674 kHz     56.250000 MHz
    DMT 0x13:  1024x768    84.996690 Hz   4:3     68.677 kHz     94.500000 MHz
    DMT 0x25:  1280x1024   85.024098 Hz   5:4     91.146 kHz    157.500000 MHz
    DMT 0x36:  1600x1200   75.000000 Hz   4:3     93.750 kHz    202.500000 MHz
  Detailed Timing Descriptors:
    DTD 1:  1024x768    84.996690 Hz   4:3     68.677 kHz     94.500000 MHz (350 mm x 262 mm)
                 Hfront   48 Hsync  96 Hback  208 Hpol P
                 Vfront    1 Vsync   3 Vback   36 Vpol P
    DTD 2:  1280x1024   85.024098 Hz   5:4     91.146 kHz    157.500000 MHz (350 mm x 262 mm)
                 Hfront   64 Hsync 160 Hback  224 Hpol P
                 Vfront    1 Vsync   3 Vback   44 Vpol P
    DTD 3:  1600x1200   75.000000 Hz   4:3     93.750 kHz    202.500000 MHz (350 mm x 262 mm)
                 Hfront   64 Hsync 192 Hback  304 Hpol P
                 Vfront    1 Vsync   3 Vback   46 Vpol P
    Display Range Limits:
      Monitor ranges (GTF): 50-160 Hz V, 30-96 kHz H, max dotclock 210 MHz
Checksum: 0x9b

----------------

Block 1, Unknown EDID Extension Block 0x00:
  00 ff ff ff ff ff ff 00 22 6c 74 07 b0 1a 00 00 '........"lt.....'
  2f 0c 01 04 a5 24 1b 7d e8 c0 98 9f 57 48 98 26 '/....$.}....WH.&'
  10 48 4c a4 43 00 31 59 45 59 61 59 81 99 a9 4f '.HL.C.1YEYaY...O'
  01 01 01 01 01 01 ea 24 00 60 41 00 28 30 30 60 '.......$.`A.(00`'
  13 00 5e 06 11 00 00 1e 86 3d 00 c0 51 00 30 40 '..^......=..Q.0@'
  40 a0 13 00 5e 06 11 00 00 1e 1a 4f 40 30 62 b0 '@...^......O@0b.'
  32 40 40 c0 13 00 5e 06 11 00 00 1e 00 00 00 fd '2@@...^.........'
  00 32 a0 1e 60 15 00 0a 20 20 20 20 20 20 00 9b '.2..`...      ..'
Checksum: 0x9b

----------------

Warnings:

Block 0, Base EDID:
  Display Range Limits: GTF support is deprecated in EDID 1.4.
  Missing Display Product Name.

Failures:

Block 0, Base EDID:
  Display Range Limits: GTF can't be combined with non-continuous frequencies.
Block 1, Base EDID:
  Unknown Extension Block.
EDID:
  Base EDID: EDID specified 0 extension block(s), but found 1 extension block(s).

EDID conformity: FAIL
