edid-decode (hex):

00 ff ff ff ff ff ff 00 21 b8 00 3d 00 00 00 00
22 10 01 03 68 33 1d 78 09 95 dd a4 54 49 97 24
10 47 4a 21 08 00 00 00 00 00 00 00 00 00 00 00
00 00 00 00 00 00 0e 1f 00 80 51 00 1e 30 40 80
37 00 fc 1d 11 00 00 04 00 00 00 00 00 00 00 00
00 00 00 00 00 00 00 00 00 00 00 00 00 fd 00 30
42 2b 35 08 00 00 00 00 00 00 00 00 00 00 00 fc
00 4c 55 32 33 2d 54 44 32 0a 20 20 20 20 00 7e

00 ff ff ff ff ff ff 00 21 b8 00 3d 00 00 00 00
22 10 01 03 68 33 1d 78 09 95 dd a4 54 49 97 24
10 47 4a 21 08 00 00 00 00 00 00 00 00 00 00 00
00 00 00 00 00 00 0e 1f 00 80 51 00 1e 30 40 80
37 00 fc 1d 11 00 00 04 00 00 00 00 00 00 00 00
00 00 00 00 00 00 00 00 00 00 00 00 00 fd 00 30
42 2b 35 08 00 00 00 00 00 00 00 00 00 00 00 fc
00 4c 55 32 33 2d 54 44 32 0a 20 20 20 20 00 7e

----------------

Block 0, Base EDID:
  EDID Structure Version & Revision: 1.3
  Vendor & Product Identification:
    Manufacturer: HMX
    Model: 15616
    Made in: week 34 of 2006
  Basic Display Parameters & Features:
    Analog display
    Signal Level Standard: 0.700 : 0.000 : 0.700 V p-p
    Blank level equals black level
    Sync: Separate
    Maximum image size: 51 cm x 29 cm
    Gamma: 2.20
    RGB color display
    Supports GTF timings within operating range
  Color Characteristics:
    Red  : 0.6425, 0.3291
    Green: 0.2861, 0.5908
    Blue : 0.1435, 0.0634
    White: 0.2802, 0.2900
  Established Timings I & II:
    DMT 0x04:   640x480    59.940476 Hz   4:3     31.469 kHz     25.175000 MHz
    DMT 0x09:   800x600    60.316541 Hz   4:3     37.879 kHz     40.000000 MHz
    DMT 0x10:  1024x768    60.003840 Hz   4:3     48.363 kHz     65.000000 MHz
  Standard Timings:
  Detailed Timing Descriptors:
    DTD 1:  1280x768    59.870228 Hz   5:3     47.776 kHz     79.500000 MHz (analog composite, serrate, sync-on-green, 508 mm x 285 mm)
                 Hfront   64 Hsync 128 Hback  192 Hpol N
                 Vfront    3 Vsync   7 Vback   20 Vpol N
    Empty Descriptor
    Display Range Limits:
      Monitor ranges (GTF): 48-66 Hz V, 43-53 kHz H, max dotclock 80 MHz
    Display Product Name: 'LU23-TD2'
Checksum: 0x7e

----------------

Block 1, Unknown EDID Extension Block 0x00:
  00 ff ff ff ff ff ff 00 21 b8 00 3d 00 00 00 00 '........!..=....'
  22 10 01 03 68 33 1d 78 09 95 dd a4 54 49 97 24 '"...h3.x....TI.$'
  10 47 4a 21 08 00 00 00 00 00 00 00 00 00 00 00 '.GJ!............'
  00 00 00 00 00 00 0e 1f 00 80 51 00 1e 30 40 80 '..........Q..0@.'
  37 00 fc 1d 11 00 00 04 00 00 00 00 00 00 00 00 '7...............'
  00 00 00 00 00 00 00 00 00 00 00 00 00 fd 00 30 '...............0'
  42 2b 35 08 00 00 00 00 00 00 00 00 00 00 00 fc 'B+5.............'
  00 4c 55 32 33 2d 54 44 32 0a 20 20 20 20 00 7e '.LU23-TD2.    .~'
Checksum: 0x7e

----------------

Warnings:

Block 0, Base EDID:
  Detailed Timing Descriptor #1: DTD is similar but not identical to DMT 0x17.

Failures:

Block 0, Base EDID:
  Basic Display Parameters & Features: EDID 1.3 requires that the first detailed timing is the preferred timing.
  Standard Timings: Use 0x0101 as the invalid Standard Timings code, not 0x0000.
  Standard Timings: Use 0x0101 as the invalid Standard Timings code, not 0x0000.
  Standard Timings: Use 0x0101 as the invalid Standard Timings code, not 0x0000.
  Standard Timings: Use 0x0101 as the invalid Standard Timings code, not 0x0000.
  Standard Timings: Use 0x0101 as the invalid Standard Timings code, not 0x0000.
  Standard Timings: Use 0x0101 as the invalid Standard Timings code, not 0x0000.
  Standard Timings: Use 0x0101 as the invalid Standard Timings code, not 0x0000.
  Standard Timings: Use 0x0101 as the invalid Standard Timings code, not 0x0000.
  Empty Descriptor: Use Dummy Descriptor instead of all zeroes.
  Display Range Limits: Byte 11 is 0x00 instead of 0x0a.
  Display Range Limits: Bytes 12-17 must be 0x20.
Block 1, Base EDID:
  Unknown Extension Block.
EDID:
  Base EDID: Some timings are out of range of the Monitor Ranges:
    Horizontal Freq: 31.468 - 48.363 kHz (Monitor: 43.000 - 53.000 kHz)
  Base EDID: EDID specified 0 extension block(s), but found 1 extension block(s).

EDID conformity: FAIL
