
EDID (hex):
00ffffffffffff000dae051500000000
221c0104952213780228659759548e27
1e505400000001010101010101010101
010101010101b43b804a713834403020
350058c110000018000000fe004e3135
3648434e2d4541410a20000000fe0043
4d4e0a202020202020202020000000fe
004e31353648434e2d4541410a2000f2

Extracted contents:
header:          00 ff ff ff ff ff ff 00
serial number:   0d ae 05 15 00 00 00 00 22 1c
version:         01 04
basic params:    95 22 13 78 02
chroma info:     28 65 97 59 54 8e 27 1e 50 54
established:     00 00 00
standard:        01 01 01 01 01 01 01 01 01 01 01 01 01 01 01 01
descriptor 1:    b4 3b 80 4a 71 38 34 40 30 20 35 00 58 c1 10 00 00 18
descriptor 2:    00 00 00 fe 00 4e 31 35 36 48 43 4e 2d 45 41 41 0a 20
descriptor 3:    00 00 00 fe 00 43 4d 4e 0a 20 20 20 20 20 20 20 20 20
descriptor 4:    00 00 00 fe 00 4e 31 35 36 48 43 4e 2d 45 41 41 0a 20
extensions:      00
checksum:        f2

EDID version: 1.4
Manufacturer: CMN Model 1505 Serial Number --
Made in week 34 of 2018
Digital display
6 bits per primary color channel
DisplayPort interface
Maximum image size: 34 cm x 19 cm
Gamma: 2.20
Supported color formats: RGB 4:4:4
First detailed timing includes the native pixel format and preferred refresh rate
Display x,y Chromaticity:
  Red:   0.5898, 0.3496
  Green: 0.3300, 0.5546
  Blue:  0.1533, 0.1191
  White: 0.3134, 0.3291
Established timings supported:
Standard timings supported:
Detailed mode: Clock 152.840 MHz, 344 mm x 193 mm
               1920 1968 2000 2250 hborder 0
               1080 1083 1088 1132 vborder 0
               -hsync -vsync 
               VertFreq: 60 Hz, HorFreq: 67928 Hz
ASCII string: N156HCN-EAA
ASCII string: CMN
ASCII string: N156HCN-EAA
Checksum: 0xf2 (valid)
EDID block does NOT conform to EDID 1.4!
	Missing name descriptor
	Missing monitor ranges
