edid-decode (hex):

00 ff ff ff ff ff ff 00 4c 3d 3a 0d 00 06 00 01
01 0a 01 03 80 76 39 78 0a 33 bd b4 44 4d 89 36
0f 47 4a bd ff 80 71 4f 81 c0 81 00 81 80 85 00
b9 c0 b3 00 01 01 04 74 00 30 f2 70 4a 80 b0 48
8a 00 40 0d 74 00 00 0e 02 3a 80 08 71 38 3d 40
48 3c 45 00 40 0d 74 00 00 0e 00 00 00 fd 00 08
4b 0f 41 0e 00 0a 30 30 30 30 30 30 00 00 00 fc
00 43 41 4d 43 45 4e 47 0a 30 30 30 30 30 01 05

02 03 46 f0 43 4f 00 0f 04 03 05 04 30 31 32 4d
4e 72 73 74 07 06 03 02 39 09 07 07 05 07 40 3d
04 c0 83 01 00 00 f2 00 0f f3 05 03 01 7e 03 0c
00 00 00 b8 3c 30 00 80 01 02 03 04 f3 06 05 01
f5 0e 70 71 75 76 01 0d 80 c0 72 0c 06 30 00 3c
35 80 40 0d 74 00 00 8e 76 31 46 ba 41 00 0e 30
46 8f 33 00 40 0d 74 00 00 0e 00 00 00 00 00 00
00 00 00 00 00 00 00 00 00 00 00 00 00 00 00 c5

00 ff ff ff ff ff ff 00 4c 3d 3a 0d 00 06 00 01
01 0a 01 03 80 76 39 78 0a 33 bd b4 44 4d 89 36
0f 47 4a bd ff 80 71 4f 81 c0 81 00 81 80 85 00
b9 c0 b3 00 01 01 04 74 00 30 f2 70 4a 80 b0 48
8a 00 40 0d 74 00 00 0e 02 3a 80 08 71 38 3d 40
48 3c 45 00 40 0d 74 00 00 0e 00 00 00 fd 00 08
4b 0f 41 0e 00 0a 30 30 30 30 30 30 00 00 00 fc
00 43 41 4d 43 45 4e 47 0a 30 30 30 30 30 01 05

02 03 46 f0 43 4f 00 0f 04 03 05 04 30 31 32 4d
4e 72 73 74 07 06 03 02 39 09 07 07 05 07 40 3d
04 c0 83 01 00 00 f2 00 0f f3 05 03 01 7e 03 0c
00 00 00 b8 3c 30 00 80 01 02 03 04 f3 06 05 01
f5 0e 70 71 75 76 01 0d 80 c0 72 0c 06 30 00 3c
35 80 40 0d 74 00 00 8e 76 31 46 ba 41 00 0e 30
46 8f 33 00 40 0d 74 00 00 0e 00 00 00 00 00 00
00 00 00 00 00 00 00 00 00 00 00 00 00 00 00 c5

----------------

Block 0, Base EDID:
  EDID Structure Version & Revision: 1.3
  Vendor & Product Identification:
    Manufacturer: SA]
    Model: 3386
    Serial Number: ...
    Made in: week 1 of 2000
  Basic Display Parameters & Features:
    Digital display
    Maximum image size: 118 cm x 57 cm
    Gamma: 2.20
    RGB color display
    First detailed timing is the preferred timing
  Color Characteristics:
    Red  : 0.7031, 0.2685
    Green: 0.3007, 0.5380
    Blue : 0.2128, 0.0615
    White: 0.2802, 0.2900
  Established Timings I & II:
    IBM     :   720x400    70.081663 Hz   9:5     31.467 kHz     28.320000 MHz
    DMT 0x04:   640x480    59.940476 Hz   4:3     31.469 kHz     25.175000 MHz
    Apple   :   640x480    66.666667 Hz   4:3     35.000 kHz     30.240000 MHz
    DMT 0x05:   640x480    72.808802 Hz   4:3     37.861 kHz     31.500000 MHz
    DMT 0x06:   640x480    75.000000 Hz   4:3     37.500 kHz     31.500000 MHz
    DMT 0x09:   800x600    60.316541 Hz   4:3     37.879 kHz     40.000000 MHz
    DMT 0x0a:   800x600    72.187572 Hz   4:3     48.077 kHz     50.000000 MHz
    DMT 0x0b:   800x600    75.000000 Hz   4:3     46.875 kHz     49.500000 MHz
    Apple   :   832x624    74.551266 Hz   4:3     49.726 kHz     57.284000 MHz
    DMT 0x0f:  1024x768i   86.957532 Hz   4:3     35.522 kHz     44.900000 MHz
    DMT 0x10:  1024x768    60.003840 Hz   4:3     48.363 kHz     65.000000 MHz
    DMT 0x11:  1024x768    70.069359 Hz   4:3     56.476 kHz     75.000000 MHz
    DMT 0x12:  1024x768    75.028582 Hz   4:3     60.023 kHz     78.750000 MHz
    DMT 0x24:  1280x1024   75.024675 Hz   5:4     79.976 kHz    135.000000 MHz
    Apple   :  1152x870    75.061550 Hz 192:145   68.681 kHz    100.000000 MHz
  Standard Timings:
    DMT 0x15:  1152x864    75.000000 Hz   4:3     67.500 kHz    108.000000 MHz
    DMT 0x55:  1280x720    60.000000 Hz  16:9     45.000 kHz     74.250000 MHz
    DMT 0x1c:  1280x800    59.810326 Hz  16:10    49.702 kHz     83.500000 MHz
    DMT 0x23:  1280x1024   60.019740 Hz   5:4     63.981 kHz    108.000000 MHz
    GTF     :  1312x820    59.999782 Hz  16:10    50.940 kHz     88.024000 MHz
    GTF     :  1728x972    59.999810 Hz  16:9     60.360 kHz    139.069000 MHz
    DMT 0x3a:  1680x1050   59.954250 Hz  16:10    65.290 kHz    146.250000 MHz
  Detailed Timing Descriptors:
    DTD 1:  3840x2160   30.214861 Hz  16:9     67.500 kHz    297.000000 MHz (bipolar analog composite, serrate, 1856 mm x 1037 mm)
                 Hfront  176 Hsync  72 Hback  312 Hpol N
                 Vfront    8 Vsync  10 Vback   56 Vpol N
    DTD 2:  1920x1080   59.592029 Hz  16:9     67.995 kHz    148.500000 MHz (bipolar analog composite, serrate, 1856 mm x 1037 mm)
                 Hfront   72 Hsync  60 Hback  132 Hpol N
                 Vfront    4 Vsync   5 Vback   52 Vpol N
    Display Range Limits:
      Monitor ranges (GTF): 8-75 Hz V, 15-65 kHz H, max dotclock 140 MHz
    Display Product Name: 'CAMCENG'
  Extension blocks: 1
Checksum: 0x05

----------------

Block 1, CTA-861 Extension Block:
  Revision: 3
  Underscans IT Video Formats by default
  Basic audio support
  Supports YCbCr 4:4:4
  Supports YCbCr 4:2:2
  Native detailed modes: 0
  Video Data Block:
    VIC  79:  1680x720    24.000000 Hz  64:27    18.000 kHz     59.400000 MHz
    VIC  15:  1440x480    59.940060 Hz  16:9     31.469 kHz     54.000000 MHz
  Unknown CTA-861 Data Block (tag 0x00, length 4):
    03 05 04 30                                     '...0'
  Audio Data Block:
  Audio Data Block:
  Unknown CTA-861 Data Block (tag 0x00, length 6):
    05 01 f5 0e 70 71                               '....pq'
  Vendor-Specific Data Block, OUI 0D-01-76:
    80 c0 72 0c 06 30 00 3c 35 80 40 0d 74 00 00 8e '..r..0.<5.@.t...'
    76 31                                           'v1'
  Detailed Timing Descriptors:
    DTD 3:  1920x1560i  16.130627 Hz  16:13    12.687 kHz     33.290000 MHz (bipolar analog composite, serrate, 1856 mm x 1037 mm)
                 Hfront  512 Hsync  60 Hback  132 Hpol N
                 Vfront    3 Vsync   5 Vback   -2 Vpol N Vfront +0.5 Odd Field
                 Vfront    3 Vsync   5 Vback   -2 Vpol N Vback  +0.5 Even Field
    DTD 4:  1094x768   105.415468 Hz 547:384   82.435 kHz    126.620000 MHz (bipolar analog composite, serrate, 1856 mm x 1037 mm)
                 Hfront   70 Hsync 143 Hback  229 Hpol N
                 Vfront    3 Vsync   3 Vback    8 Vpol N
Checksum: 0xc5 (should be 0x15)  Unused space in Extension Block: 21 bytes

----------------

Block 2, Unknown EDID Extension Block 0x00:
  00 ff ff ff ff ff ff 00 4c 3d 3a 0d 00 06 00 01 '........L=:.....'
  01 0a 01 03 80 76 39 78 0a 33 bd b4 44 4d 89 36 '.....v9x.3..DM.6'
  0f 47 4a bd ff 80 71 4f 81 c0 81 00 81 80 85 00 '.GJ...qO........'
  b9 c0 b3 00 01 01 04 74 00 30 f2 70 4a 80 b0 48 '.......t.0.pJ..H'
  8a 00 40 0d 74 00 00 0e 02 3a 80 08 71 38 3d 40 '..@.t....:..q8=@'
  48 3c 45 00 40 0d 74 00 00 0e 00 00 00 fd 00 08 'H<E.@.t.........'
  4b 0f 41 0e 00 0a 30 30 30 30 30 30 00 00 00 fc 'K.A...000000....'
  00 43 41 4d 43 45 4e 47 0a 30 30 30 30 30 01 05 '.CAMCENG.00000..'
Checksum: 0x05

----------------

Block 3, CTA-861 Extension Block:
  Revision: 3
  Underscans IT Video Formats by default
  Basic audio support
  Supports YCbCr 4:4:4
  Supports YCbCr 4:2:2
  Native detailed modes: 0
  Video Data Block:
    VIC  79:  1680x720    24.000000 Hz  64:27    18.000 kHz     59.400000 MHz
    VIC  15:  1440x480    59.940060 Hz  16:9     31.469 kHz     54.000000 MHz
  Unknown CTA-861 Data Block (tag 0x00, length 4):
    03 05 04 30                                     '...0'
  Audio Data Block:
  Audio Data Block:
  Unknown CTA-861 Data Block (tag 0x00, length 6):
    05 01 f5 0e 70 71                               '....pq'
  Vendor-Specific Data Block, OUI 0D-01-76:
    80 c0 72 0c 06 30 00 3c 35 80 40 0d 74 00 00 8e '..r..0.<5.@.t...'
    76 31                                           'v1'
  Detailed Timing Descriptors:
    DTD 5:  1920x1560i  16.130627 Hz  16:13    12.687 kHz     33.290000 MHz (bipolar analog composite, serrate, 1856 mm x 1037 mm)
                 Hfront  512 Hsync  60 Hback  132 Hpol N
                 Vfront    3 Vsync   5 Vback   -2 Vpol N Vfront +0.5 Odd Field
                 Vfront    3 Vsync   5 Vback   -2 Vpol N Vback  +0.5 Even Field
    DTD 6:  1094x768   105.415468 Hz 547:384   82.435 kHz    126.620000 MHz (bipolar analog composite, serrate, 1856 mm x 1037 mm)
                 Hfront   70 Hsync 143 Hback  229 Hpol N
                 Vfront    3 Vsync   3 Vback    8 Vpol N
Checksum: 0xc5 (should be 0x15)  Unused space in Extension Block: 21 bytes

----------------

Warnings:

Block 1, CTA-861 Extension Block:
  Video Data Block: VIC 79 is the preferred timing, overriding the first detailed timings. Is this intended?
  Unknown CTA-861 Data Block (tag 0x00, length 4).
  Unknown CTA-861 Data Block (tag 0x00, length 6).
  Vendor-Specific Data Block, OUI 0D-01-76: Unknown OUI 0D-01-76.
  Add a Colorimetry Data Block with the sRGB colorimetry bit set to avoid interop issues.
Block 3, CTA-861 Extension Block:
  Unknown CTA-861 Data Block (tag 0x00, length 4).
  Unknown CTA-861 Data Block (tag 0x00, length 6).
  Vendor-Specific Data Block, OUI 0D-01-76: Unknown OUI 0D-01-76.
  Add a Colorimetry Data Block with the sRGB colorimetry bit set to avoid interop issues.

Failures:

Block 0, Base EDID:
  Vendor & Product Identification: Manufacturer name field contains garbage.
  Detailed Timing Descriptor #1: Mismatch of image size 1856x1037 mm vs display size 1180x570 mm.
  Detailed Timing Descriptor #2: Mismatch of image size 1856x1037 mm vs display size 1180x570 mm.
  Display Range Limits: Bytes 12-17 must be 0x20.
Block 1, CTA-861 Extension Block:
  Audio Data Block: Broken CTA-861 audio block length 17.
  Audio Data Block: Broken CTA-861 audio block length 29.
  Offset is 70, but should be 90.
  Detailed Timing Descriptor #3: 0 or negative vertical back porch.
  Detailed Timing Descriptor #3: Mismatch of image size 1856x1037 mm vs display size 1180x570 mm.
  Detailed Timing Descriptor #4: Mismatch of image size 1856x1037 mm vs display size 1180x570 mm.
  Missing VCDB, needed for Set Selectable RGB Quantization to avoid interop issues.
  Invalid checksum 0xc5 (should be 0x15).
Block 2, Base EDID:
  Unknown Extension Block.
Block 3, CTA-861 Extension Block:
  Video Data Block: Duplicate VIC 79.
  Video Data Block: Duplicate VIC 15.
  Audio Data Block: Broken CTA-861 audio block length 17.
  Audio Data Block: Broken CTA-861 audio block length 29.
  Offset is 70, but should be 90.
  Detailed Timing Descriptor #5: 0 or negative vertical back porch.
  Detailed Timing Descriptor #5: Mismatch of image size 1856x1037 mm vs display size 1180x570 mm.
  Detailed Timing Descriptor #6: Mismatch of image size 1856x1037 mm vs display size 1180x570 mm.
  Missing VCDB, needed for Set Selectable RGB Quantization to avoid interop issues.
  Invalid checksum 0xc5 (should be 0x15).
EDID:
  Base EDID: Some timings are out of range of the Monitor Ranges:
    Vertical Freq: 16.131 - 105.415 Hz (Monitor: 8.000 - 75.000 Hz)
    Horizontal Freq: 12.686 - 82.434 kHz (Monitor: 15.000 - 65.000 kHz)
    Maximum Clock: 297.000 MHz (Monitor: 140.000 MHz)
  Base EDID: The DTD max image size is 1856x1037mm, which is larger than the display size 1180.0x570.0mm.
  Base EDID: EDID specified 1 extension block(s), but found 3 extension block(s).
  Base EDID: EDID 1.3 requires a Block Map Extension in Block 1 if there are more than 2 blocks in the EDID.

EDID conformity: FAIL
