edid-decode (hex):

00 ff ff ff ff ff ff 00 30 64 50 53 01 01 01 01
0b 11 01 02 80 19 12 96 0a 80 85 97 58 4f 87 26
1f 50 54 00 00 00 61 40 01 01 01 01 01 01 01 01
01 01 01 01 01 01 64 19 00 40 41 00 26 30 18 88
36 00 f6 b9 00 00 00 18 00 00 00 0f 00 06 42 02
44 01 03 04 07 22 24 03 08 00 00 00 00 fe 00 54
4d 44 49 53 50 4c 41 59 0a 20 20 20 00 00 00 fe
00 4c 54 44 31 32 31 45 43 35 56 0a 20 20 00 1f

00 ff ff ff ff ff ff 00 30 64 50 53 01 01 01 01
0b 11 01 02 80 19 12 96 0a 80 85 97 58 4f 87 26
1f 50 54 00 00 00 61 40 01 01 01 01 01 01 01 01
01 01 01 01 01 01 64 19 00 40 41 00 26 30 18 88
36 00 f6 b9 00 00 00 18 00 00 00 0f 00 06 42 02
44 01 03 04 07 22 24 03 08 00 00 00 00 fe 00 54
4d 44 49 53 50 4c 41 59 0a 20 20 20 00 00 00 fe
00 4c 54 44 31 32 31 45 43 35 56 0a 20 20 00 1f

----------------

Block 0, Base EDID:
  EDID Structure Version & Revision: 1.2
  Vendor & Product Identification:
    Manufacturer: LCD
    Model: 21328
    Serial Number: ...
    Made in: week 11 of 2007
  Basic Display Parameters & Features:
    Digital display
    Maximum image size: 25 cm x 18 cm
    Gamma: 2.50
    RGB color display
    First detailed timing is the preferred timing
  Color Characteristics:
    Red  : 0.5917, 0.3437
    Green: 0.3085, 0.5273
    Blue : 0.1503, 0.1210
    White: 0.3134, 0.3291
  Established Timings I & II: none
  Standard Timings:
    DMT 0x10:  1024x768    60.003840 Hz   4:3     48.363 kHz     65.000000 MHz
  Detailed Timing Descriptors:
    DTD 1:  1024x768    60.003840 Hz   4:3     48.363 kHz     65.000000 MHz (246 mm x 185 mm)
                 Hfront   24 Hsync 136 Hback  160 Hpol N
                 Vfront    3 Vsync   6 Vback   29 Vpol N
    Manufacturer-Specified Display Descriptor (0x0f): 00 0f 00 06 42 02 44 01 03 04 07 22 24 03 08 00 '....B.D...."$...'
    Alphanumeric Data String: 'TMDISPLAY'
    Alphanumeric Data String: 'LTD121EC5V'
Checksum: 0x1f

----------------

Block 1, Unknown EDID Extension Block 0x00:
  00 ff ff ff ff ff ff 00 30 64 50 53 01 01 01 01 '........0dPS....'
  0b 11 01 02 80 19 12 96 0a 80 85 97 58 4f 87 26 '............XO.&'
  1f 50 54 00 00 00 61 40 01 01 01 01 01 01 01 01 '.PT...a@........'
  01 01 01 01 01 01 64 19 00 40 41 00 26 30 18 88 '......d..@A.&0..'
  36 00 f6 b9 00 00 00 18 00 00 00 0f 00 06 42 02 '6.............B.'
  44 01 03 04 07 22 24 03 08 00 00 00 00 fe 00 54 'D...."$........T'
  4d 44 49 53 50 4c 41 59 0a 20 20 20 00 00 00 fe 'MDISPLAY.   ....'
  00 4c 54 44 31 32 31 45 43 35 56 0a 20 20 00 1f '.LTD121EC5V.  ..'
Checksum: 0x1f

----------------

Warnings:

Block 0, Base EDID:
  EDID Structure Version & Revision: EDID 1.2 is deprecated, do not use.

Failures:

Block 1, Base EDID:
  Unknown Extension Block.
EDID:
  Base EDID: EDID specified 0 extension block(s), but found 1 extension block(s).

EDID conformity: FAIL
