edid-decode (hex):

00 ff ff ff ff ff ff 00 0d af 33 14 00 00 00 00
00 00 01 03 80 1e 13 78 0a c0 05 98 57 52 89 27
20 50 54 00 00 00 01 01 01 01 01 01 01 01 01 01
01 01 01 01 01 01 ab 22 a0 a0 50 84 1a 30 30 20
36 00 2f be 10 00 00 19 cf 1c a0 a0 50 84 16 30
30 20 36 00 2f be 10 00 00 00 00 00 00 fe 00 59
59 32 37 32 31 4e 31 34 31 43 31 0a 00 00 00 fe
00 24 33 3a 46 62 8d ab ff 02 01 0a 20 20 00 1a

----------------

Block 0, Base EDID:
  EDID Structure Version & Revision: 1.3
  Vendor & Product Identification:
    Manufacturer: CMO
    Model: 5171
    Made in: 1990
  Basic Display Parameters & Features:
    Digital display
    Maximum image size: 30 cm x 19 cm
    Gamma: 2.20
    RGB color display
    First detailed timing is preferred timing
  Color Characteristics:
    Red  : 0.5966, 0.3398
    Green: 0.3203, 0.5351
    Blue : 0.1523, 0.1250
    White: 0.3134, 0.3291
  Established Timings I & II: none
  Standard Timings: none
  Detailed Timing Descriptors:
    DTD 1:  1440x900    59.901 Hz   8:5    55.469 kHz  88.750 MHz (DE timing only, 303 mm x 190 mm)
                 Hfront   48 Hsync  32 Hback  80 Hpol N
                 Vfront    3 Vsync   6 Vback  17 Vpol N
    DTD 2:  1440x900    49.993 Hz   8:5    46.094 kHz  73.750 MHz (DE timing only, 303 mm x 190 mm)
                 Hfront   48 Hsync  32 Hback  80 Hpol N
                 Vfront    3 Vsync   6 Vback  13 Vpol N
    SPWG Module Revision: 0
    SPWG Descriptor #3:
      SPWG PC Maker P/N: 'YY272'
      SPWG LCD Supplier EEDID Revision: 49
      SPWG Manufacturer P/N: 'N141C1'
    SPWG Descriptor #4:
      SMBUS Values: 0x24 0x33 0x3a 0x46 0x62 0x8d 0xab 0xff
      LVDS Channels: 2
      Panel Self Test Present
Checksum: 0x1a
