edid-decode (hex):

00 ff ff ff ff ff ff 00 44 6d 01 00 01 00 00 00
1b 10 01 03 80 06 0e 78 0a 0d c9 a0 57 47 98 27
12 48 4c 00 00 00 01 01 01 01 01 01 01 01 01 01
01 01 01 01 01 01 22 47 38 d8 41 60 20 90 40 20
42 44 00 00 00 00 00 00 22 47 38 d8 41 60 e0 94
40 20 42 44 00 00 00 00 00 00 00 00 00 00 00 00
00 00 00 00 00 00 00 00 00 00 00 00 00 00 00 fe
00 6b 37 20 33 38 20 30 63 20 30 62 20 76 00 3b

00 ff ff ff ff ff ff 00 44 6d 01 00 01 00 00 00
1b 10 01 03 80 06 0e 78 0a 0d c9 a0 57 47 98 27
12 48 4c 00 00 00 01 01 01 01 01 01 01 01 01 01
01 01 01 01 01 01 22 47 38 d8 41 60 20 90 40 20
42 44 00 00 00 00 00 00 22 47 38 d8 41 60 e0 94
40 20 42 44 00 00 00 00 00 00 00 00 00 00 00 00
00 00 00 00 00 00 00 00 00 00 00 00 00 00 00 fe
00 6b 37 20 33 38 20 30 63 20 30 62 20 76 00 3b

----------------

Block 0, Base EDID:
  EDID Structure Version & Revision: 1.3
  Vendor & Product Identification:
    Manufacturer: QCM
    Model: 1
    Serial Number: ...
    Made in: week 27 of 2006
  Basic Display Parameters & Features:
    Digital display
    Maximum image size: 6 cm x 14 cm
    Gamma: 2.20
    RGB color display
    First detailed timing is the preferred timing
  Color Characteristics:
    Red  : 0.6250, 0.3398
    Green: 0.2802, 0.5947
    Blue : 0.1552, 0.0703
    White: 0.2832, 0.2978
  Established Timings I & II: none
  Standard Timings: none
  Detailed Timing Descriptors:
    DTD 1:  1080x2400   48.245261 Hz   9:20   117.332 kHz    182.100000 MHz (analog composite, sync-on-green)
                 Hfront  320 Hsync  32 Hback  120 Hpol N
                 Vfront   20 Vsync   2 Vback   10 Vpol N
    DTD 2:  1080x2400   32.163507 Hz   9:20   117.332 kHz    182.100000 MHz (analog composite, sync-on-green)
                 Hfront  320 Hsync  32 Hback  120 Hpol N
                 Vfront   20 Vsync   2 Vback 1226 Vpol N
    Empty Descriptor
    Alphanumeric Data String: 'k7 38 0c 0b v'
Checksum: 0x3b

----------------

Block 1, Unknown EDID Extension Block 0x00:
  00 ff ff ff ff ff ff 00 44 6d 01 00 01 00 00 00 '........Dm......'
  1b 10 01 03 80 06 0e 78 0a 0d c9 a0 57 47 98 27 '.......x....WG.''
  12 48 4c 00 00 00 01 01 01 01 01 01 01 01 01 01 '.HL.............'
  01 01 01 01 01 01 22 47 38 d8 41 60 20 90 40 20 '......"G8.A` .@ '
  42 44 00 00 00 00 00 00 22 47 38 d8 41 60 e0 94 'BD......"G8.A`..'
  40 20 42 44 00 00 00 00 00 00 00 00 00 00 00 00 '@ BD............'
  00 00 00 00 00 00 00 00 00 00 00 00 00 00 00 fe '................'
  00 6b 37 20 33 38 20 30 63 20 30 62 20 76 00 3b '.k7 38 0c 0b v.;'
Checksum: 0x3b

----------------

Warnings:

Block 0, Base EDID:
  Basic Display Parameters & Features: Dubious maximum image size (6x14 is smaller than 10x10 cm).

Failures:

Block 0, Base EDID:
  Detailed Timing Descriptor #1: Mismatch of image size vs display size: image size is not set, but display size is.
  Detailed Timing Descriptor #2: Mismatch of image size vs display size: image size is not set, but display size is.
  Empty Descriptor: Use Dummy Descriptor instead of all zeroes.
  Missing Display Product Name.
  Missing Display Range Limits Descriptor.
Block 1, Base EDID:
  Unknown Extension Block.
EDID:
  Base EDID: EDID specified 0 extension block(s), but found 1 extension block(s).

EDID conformity: FAIL
