edid-decode (hex):

00 ff ff ff ff ff ff 00 30 ae 11 40 00 00 00 00
2d 12 01 03 80 1a 10 78 ea 85 c5 94 57 4f 8a 27
20 50 54 00 00 00 01 01 01 01 01 01 01 01 01 01
01 01 01 01 01 01 c0 1b 00 ab 50 20 10 30 34 40
33 00 05 a3 10 00 00 19 c0 1b 00 ab 50 20 10 30
34 40 33 00 05 a3 10 00 00 19 00 00 00 0f 00 81
0a 3c 81 0a 3c 1e 00 00 4c a3 57 31 00 00 00 fe
00 4c 54 4e 31 32 31 41 50 30 33 30 30 31 00 ec

----------------

Block 0, Base EDID:
  EDID Structure Version & Revision: 1.3
  Vendor & Product Identification:
    Manufacturer: LEN
    Model: 16401
    Made in: week 45 of 2008
  Basic Display Parameters & Features:
    Digital display
    Maximum image size: 26 cm x 16 cm
    Gamma: 2.20
    DPMS levels: Standby Suspend Off
    RGB color display
    First detailed timing is the preferred timing
  Color Characteristics:
    Red  : 0.5800, 0.3398
    Green: 0.3095, 0.5400
    Blue : 0.1552, 0.1250
    White: 0.3134, 0.3291
  Established Timings I & II: none
  Standard Timings: none
  Detailed Timing Descriptors:
    DTD 1:  1280x800    59.999189 Hz   8:5     48.959 kHz     71.040000 MHz (261 mm x 163 mm)
                 Hfront   52 Hsync  64 Hback   55 Hpol N
                 Vfront    3 Vsync   3 Vback   10 Vpol N
    DTD 2:  1280x800    59.999189 Hz   8:5     48.959 kHz     71.040000 MHz (261 mm x 163 mm)
                 Hfront   52 Hsync  64 Hback   55 Hpol N
                 Vfront    3 Vsync   3 Vback   10 Vpol N
    Manufacturer-Specified Display Descriptor (0x0f): 00 0f 00 81 0a 3c 81 0a 3c 1e 00 00 4c a3 57 31 '.....<..<...L.W1'
    Alphanumeric Data String: 'LTN121AP03001'
Checksum: 0xec

----------------

Failures:

Block 0, Base EDID:
  Missing Display Product Name.
  Missing Display Range Limits Descriptor.

EDID conformity: FAIL
