
EDID (hex):
00ffffffffffff0030ae224000000000
000f0103801d1578ea2d059757518a27
23505400000001010101010101010101
010101010101302a7820511a10403070
13001ed61000001925237820511a1040
307013001ed6100000190000000f0090
43329043280f01004ca35034000000fe
004c544e31343150342d4c30320a0041

Extracted contents:
header:          00 ff ff ff ff ff ff 00
serial number:   30 ae 22 40 00 00 00 00 00 0f
version:         01 03
basic params:    80 1d 15 78 ea
chroma info:     2d 05 97 57 51 8a 27 23 50 54
established:     00 00 00
standard:        01 01 01 01 01 01 01 01 01 01 01 01 01 01 01 01
descriptor 1:    30 2a 78 20 51 1a 10 40 30 70 13 00 1e d6 10 00 00 19
descriptor 2:    25 23 78 20 51 1a 10 40 30 70 13 00 1e d6 10 00 00 19
descriptor 3:    00 00 00 0f 00 90 43 32 90 43 28 0f 01 00 4c a3 50 34
descriptor 4:    00 00 00 fe 00 4c 54 4e 31 34 31 50 34 2d 4c 30 32 0a
extensions:      00
checksum:        41

EDID version: 1.3
Manufacturer: LEN Model 4022 Serial Number --
Digital display
Maximum image size: 29 cm x 21 cm
Gamma: 2.20
DPMS levels: Standby Suspend Off
RGB color display
First detailed timing is preferred timing
Display x,y Chromaticity:
  Red:   0.5898, 0.3417
  Green: 0.3193, 0.5400
  Blue:  0.1523, 0.1367
  White: 0.3134, 0.3291
Established timings supported:
Standard timings supported:
Detailed mode: Clock 108.000 MHz, 286 mm x 214 mm
               1400 1448 1560 1688 hborder 0
               1050 1051 1054 1066 vborder 0
               -hsync -vsync 
               VertFreq: 60 Hz, HorFreq: 63981 Hz
Detailed mode: Clock 89.970 MHz, 286 mm x 214 mm
               1400 1448 1560 1688 hborder 0
               1050 1051 1054 1066 vborder 0
               -hsync -vsync 
               VertFreq: 49 Hz, HorFreq: 53299 Hz
Manufacturer-specified data, tag 15
ASCII string: LTN141P4-L02
Checksum: 0x41 (valid)
EDID block does NOT conform to EDID 1.3!
	Missing name descriptor
	Missing monitor ranges
EDID block does not conform at all!
	Bad year of manufacture
