
EDID (hex):
00ffffffffffff00525f115501040000
051f0104a52b1d78028042ac5130b425
10505300000001010101010101010101
010101010101a63780c8703828405020
3500064d2100001a602e80c870382840
50203500064d2100001a000000fe000a
202020202020202020202020000000fe
0031393230783130383020202020003b

edid-decode (hex):

00 ff ff ff ff ff ff 00 52 5f 11 55 01 04 00 00
05 1f 01 04 a5 2b 1d 78 02 80 42 ac 51 30 b4 25
10 50 53 00 00 00 01 01 01 01 01 01 01 01 01 01
01 01 01 01 01 01 a6 37 80 c8 70 38 28 40 50 20
35 00 06 4d 21 00 00 1a 60 2e 80 c8 70 38 28 40
50 20 35 00 06 4d 21 00 00 1a 00 00 00 fe 00 0a
20 20 20 20 20 20 20 20 20 20 20 20 00 00 00 fe
00 31 39 32 30 78 31 30 38 30 20 20 20 20 00 3b

----------------

Block 0, Base EDID:
  EDID Structure Version & Revision: 1.4
  Vendor & Product Identification:
    Manufacturer: TR_
    Model: 21777
    Serial Number: 1025
    Made in: week 5 of 2021
  Basic Display Parameters & Features:
    Digital display
    Bits per primary color channel: 8
    DisplayPort interface
    Maximum image size: 43 cm x 29 cm
    Gamma: 2.20
    Supported color formats: RGB 4:4:4
    First detailed timing includes the native pixel format and preferred refresh rate
  Color Characteristics:
    Red  : 0.6738, 0.3164
    Green: 0.1875, 0.7031
    Blue : 0.1455, 0.0625
    White: 0.3125, 0.3261
  Established Timings I & II: none
  Standard Timings: none
  Detailed Timing Descriptors:
    DTD 1:  1920x1080   59.998315 Hz  16:9     67.198 kHz    142.460000 MHz (518 mm x 333 mm)
                 Hfront   80 Hsync  32 Hback   88 Hpol P
                 Vfront    3 Vsync   5 Vback   32 Vpol N
    DTD 2:  1920x1080   50.000000 Hz  16:9     56.000 kHz    118.720000 MHz (518 mm x 333 mm)
                 Hfront   80 Hsync  32 Hback   88 Hpol P
                 Vfront    3 Vsync   5 Vback   32 Vpol N
    Alphanumeric Data String: ''
    Alphanumeric Data String: '1920x1080    '
Checksum: 0x3b


