
EDID (hex):
00ffffffffffff0004724205022b1083
1f1c0103682b18782adaf5a455529f27
0e5054afee0081c08100a9c001010101
010101010101302a40c8608464301850
1300b2ec1000001e000000fd00324c1e
5010000a202020202020000000ff0054
34324545303032343230350a000000fc
0041636572204b41323030485142007b

Extracted contents:
header:          00 ff ff ff ff ff ff 00
serial number:   04 72 42 05 02 2b 10 83 1f 1c
version:         01 03
basic params:    68 2b 18 78 2a
chroma info:     da f5 a4 55 52 9f 27 0e 50 54
established:     af ee 00
standard:        81 c0 81 00 a9 c0 01 01 01 01 01 01 01 01 01 01
descriptor 1:    30 2a 40 c8 60 84 64 30 18 50 13 00 b2 ec 10 00 00 1e
descriptor 2:    00 00 00 fd 00 32 4c 1e 50 10 00 0a 20 20 20 20 20 20
descriptor 3:    00 00 00 ff 00 54 34 32 45 45 30 30 32 34 32 30 35 0a
descriptor 4:    00 00 00 fc 00 41 63 65 72 20 4b 41 32 30 30 48 51 42
extensions:      00
checksum:        7b

EDID version: 1.3
Manufacturer: ACR Model 542 Serial Number --
Made in week 31 of 2018
Analog display, Input voltage level: 0.7/0.7 V
Sync: Separate 
Maximum image size: 43 cm x 24 cm
Gamma: 2.20
DPMS levels: Off
RGB color display
First detailed timing is preferred timing
Display x,y Chromaticity:
  Red:   0.6435, 0.3330
  Green: 0.3222, 0.6230
  Blue:  0.1552, 0.0576
  White: 0.3134, 0.3291
Established timings supported:
  720x400@70Hz 9:5 HorFreq: 31469 Hz Clock: 28.320 MHz
  640x480@60Hz 4:3 HorFreq: 31469 Hz Clock: 25.175 MHz
  640x480@72Hz 4:3 HorFreq: 37900 Hz Clock: 31.500 MHz
  640x480@75Hz 4:3 HorFreq: 37500 Hz Clock: 31.500 MHz
  800x600@56Hz 4:3 HorFreq: 35200 Hz Clock: 36.000 MHz
  800x600@60Hz 4:3 HorFreq: 37900 Hz Clock: 40.000 MHz
  800x600@72Hz 4:3 HorFreq: 48100 Hz Clock: 50.000 MHz
  800x600@75Hz 4:3 HorFreq: 46900 Hz Clock: 49.500 MHz
  832x624@75Hz 4:3 HorFreq: 49726 Hz Clock: 57.284 MHz
  1024x768@60Hz 4:3 HorFreq: 48400 Hz Clock: 65.000 MHz
  1024x768@70Hz 4:3 HorFreq: 56500 Hz Clock: 75.000 MHz
  1024x768@75Hz 4:3 HorFreq: 60000 Hz Clock: 78.750 MHz
Standard timings supported:
  1280x720@60Hz 16:9
  1280x800@60Hz 16:10
  1600x900@60Hz 16:9
Detailed mode: Clock 108.000 MHz, 434 mm x 236 mm
               1600 1624 1704 1800 hborder 0
                900  901  904 1000 vborder 0
               +hsync +vsync 
               VertFreq: 60 Hz, HorFreq: 60000 Hz
Monitor ranges (GTF): 50-76Hz V, 30-80kHz H, max dotclock 160MHz
Serial number: --
Checksum: 0x7b (valid)
EDID block does NOT conform to EDID 1.3!
	Name descriptor not terminated with a newline
