edid-decode (hex):

00 ff ff ff ff ff ff 00 38 a3 4f 67 01 01 01 01
20 13 01 03 80 34 20 78 ea 9e f5 a6 56 4b 9a 25
12 50 54 bf ef 80 81 c0 81 80 90 40 8b c0 95 00
a9 40 b3 00 d1 00 28 3c 80 a0 70 b0 23 40 30 20
36 00 06 44 21 00 00 1a 00 00 00 fd 00 32 4c 1a
52 11 00 0a 20 20 20 20 20 20 00 00 00 fc 00 45
41 32 34 31 57 4d 0a 20 20 20 20 20 00 00 00 ff
00 39 38 31 30 31 36 33 36 4e 42 0a 20 20 01 71

00 ff ff ff ff ff ff 00 38 a3 4f 67 01 01 01 01
20 13 01 03 80 34 20 78 ea 9e f5 a6 56 4b 9a 25
12 50 54 bf ef 80 81 c0 81 80 90 40 8b c0 95 00
a9 40 b3 00 d1 00 28 3c 80 a0 70 b0 23 40 30 20
36 00 06 44 21 00 00 1a 00 00 00 fd 00 32 4c 1a
52 11 00 0a 20 20 20 20 20 20 00 00 00 fc 00 45
41 32 34 31 57 4d 0a 20 20 20 20 20 00 00 00 ff
00 39 38 31 30 31 36 33 36 4e 42 0a 20 20 01 71

00 ff ff ff ff ff ff 00 38 a3 4f 67 01 01 01 01
20 13 01 03 80 34 20 78 ea 9e f5 a6 56 4b 9a 25
12 50 54 bf ef 80 81 c0 81 80 90 40 8b c0 95 00
a9 40 b3 00 d1 00 28 3c 80 a0 70 b0 23 40 30 20
36 00 06 44 21 00 00 1a 00 00 00 fd 00 32 4c 1a
52 11 00 0a 20 20 20 20 20 20 00 00 00 fc 00 45
41 32 34 31 57 4d 0a 20 20 20 20 20 00 00 00 ff
00 39 38 31 30 31 36 33 36 4e 42 0a 20 20 01 71

00 ff ff ff ff ff ff 00 38 a3 4f 67 01 01 01 01
20 13 01 03 80 34 20 78 ea 9e f5 a6 56 4b 9a 25
12 50 54 bf ef 80 81 c0 81 80 90 40 8b c0 95 00
a9 40 b3 00 d1 00 28 3c 80 a0 70 b0 23 40 30 20
36 00 06 44 21 00 00 1a 00 00 00 fd 00 32 4c 1a
52 11 00 0a 20 20 20 20 20 20 00 00 00 fc 00 45
41 32 34 31 57 4d 0a 20 20 20 20 20 00 00 00 ff
00 39 38 31 30 31 36 33 36 4e 42 0a 20 20 01 71

00 ff ff ff ff ff ff 00 38 a3 4f 67 01 01 01 01
20 13 01 03 80 34 20 78 ea 9e f5 a6 56 4b 9a 25
12 50 54 bf ef 80 81 c0 81 80 90 40 8b c0 95 00
a9 40 b3 00 d1 00 28 3c 80 a0 70 b0 23 40 30 20
36 00 06 44 21 00 00 1a 00 00 00 fd 00 32 4c 1a
52 11 00 0a 20 20 20 20 20 20 00 00 00 fc 00 45
41 32 34 31 57 4d 0a 20 20 20 20 20 00 00 00 ff
00 39 38 31 30 31 36 33 36 4e 42 0a 20 20 01 71

00 ff ff ff ff ff ff 00 38 a3 4f 67 01 01 01 01
20 13 01 03 80 34 20 78 ea 9e f5 a6 56 4b 9a 25
12 50 54 bf ef 80 81 c0 81 80 90 40 8b c0 95 00
a9 40 b3 00 d1 00 28 3c 80 a0 70 b0 23 40 30 20
36 00 06 44 21 00 00 1a 00 00 00 fd 00 32 4c 1a
52 11 00 0a 20 20 20 20 20 20 00 00 00 fc 00 45
41 32 34 31 57 4d 0a 20 20 20 20 20 00 00 00 ff
00 39 38 31 30 31 36 33 36 4e 42 0a 20 20 01 71

00 ff ff ff ff ff ff 00 38 a3 4f 67 01 01 01 01
20 13 01 03 80 34 20 78 ea 9e f5 a6 56 4b 9a 25
12 50 54 bf ef 80 81 c0 81 80 90 40 8b c0 95 00
a9 40 b3 00 d1 00 28 3c 80 a0 70 b0 23 40 30 20
36 00 06 44 21 00 00 1a 00 00 00 fd 00 32 4c 1a
52 11 00 0a 20 20 20 20 20 20 00 00 00 fc 00 45
41 32 34 31 57 4d 0a 20 20 20 20 20 00 00 00 ff
00 39 38 31 30 31 36 33 36 4e 42 0a 20 20 01 71

00 ff ff ff ff ff ff 00 38 a3 4f 67 01 01 01 01
20 13 01 03 80 34 20 78 ea 9e f5 a6 56 4b 9a 25
12 50 54 bf ef 80 81 c0 81 80 90 40 8b c0 95 00
a9 40 b3 00 d1 00 28 3c 80 a0 70 b0 23 40 30 20
36 00 06 44 21 00 00 1a 00 00 00 fd 00 32 4c 1a
52 11 00 0a 20 20 20 20 20 20 00 00 00 fc 00 45
41 32 34 31 57 4d 0a 20 20 20 20 20 00 00 00 ff
00 39 38 31 30 31 36 33 36 4e 42 0a 20 20 01 71

00 ff ff ff ff ff ff 00 38 a3 4f 67 01 01 01 01
20 13 01 03 80 34 20 78 ea 9e f5 a6 56 4b 9a 25
12 50 54 bf ef 80 81 c0 81 80 90 40 8b c0 95 00
a9 40 b3 00 d1 00 28 3c 80 a0 70 b0 23 40 30 20
36 00 06 44 21 00 00 1a 00 00 00 fd 00 32 4c 1a
52 11 00 0a 20 20 20 20 20 20 00 00 00 fc 00 45
41 32 34 31 57 4d 0a 20 20 20 20 20 00 00 00 ff
00 39 38 31 30 31 36 33 36 4e 42 0a 20 20 01 71

00 ff ff ff ff ff ff 00 38 a3 4f 67 01 01 01 01
20 13 01 03 80 34 20 78 ea 9e f5 a6 56 4b 9a 25
12 50 54 bf ef 80 81 c0 81 80 90 40 8b c0 95 00
a9 40 b3 00 d1 00 28 3c 80 a0 70 b0 23 40 30 20
36 00 06 44 21 00 00 1a 00 00 00 fd 00 32 4c 1a
52 11 00 0a 20 20 20 20 20 20 00 00 00 fc 00 45
41 32 34 31 57 4d 0a 20 20 20 20 20 00 00 00 ff
00 39 38 31 30 31 36 33 36 4e 42 0a 20 20 01 71

00 ff ff ff ff ff ff 00 38 a3 4f 67 01 01 01 01
20 13 01 03 80 34 20 78 ea 9e f5 a6 56 4b 9a 25
12 50 54 bf ef 80 81 c0 81 80 90 40 8b c0 95 00
a9 40 b3 00 d1 00 28 3c 80 a0 70 b0 23 40 30 20
36 00 06 44 21 00 00 1a 00 00 00 fd 00 32 4c 1a
52 11 00 0a 20 20 20 20 20 20 00 00 00 fc 00 45
41 32 34 31 57 4d 0a 20 20 20 20 20 00 00 00 ff
00 39 38 31 30 31 36 33 36 4e 42 0a 20 20 01 71

00 ff ff ff ff ff ff 00 38 a3 4f 67 01 01 01 01
20 13 01 03 80 34 20 78 ea 9e f5 a6 56 4b 9a 25
12 50 54 bf ef 80 81 c0 81 80 90 40 8b c0 95 00
a9 40 b3 00 d1 00 28 3c 80 a0 70 b0 23 40 30 20
36 00 06 44 21 00 00 1a 00 00 00 fd 00 32 4c 1a
52 11 00 0a 20 20 20 20 20 20 00 00 00 fc 00 45
41 32 34 31 57 4d 0a 20 20 20 20 20 00 00 00 ff
00 39 38 31 30 31 36 33 36 4e 42 0a 20 20 01 71

00 ff ff ff ff ff ff 00 38 a3 4f 67 01 01 01 01
20 13 01 03 80 34 20 78 ea 9e f5 a6 56 4b 9a 25
12 50 54 bf ef 80 81 c0 81 80 90 40 8b c0 95 00
a9 40 b3 00 d1 00 28 3c 80 a0 70 b0 23 40 30 20
36 00 06 44 21 00 00 1a 00 00 00 fd 00 32 4c 1a
52 11 00 0a 20 20 20 20 20 20 00 00 00 fc 00 45
41 32 34 31 57 4d 0a 20 20 20 20 20 00 00 00 ff
00 39 38 31 30 31 36 33 36 4e 42 0a 20 20 01 71

00 ff ff ff ff ff ff 00 38 a3 4f 67 01 01 01 01
20 13 01 03 80 34 20 78 ea 9e f5 a6 56 4b 9a 25
12 50 54 bf ef 80 81 c0 81 80 90 40 8b c0 95 00
a9 40 b3 00 d1 00 28 3c 80 a0 70 b0 23 40 30 20
36 00 06 44 21 00 00 1a 00 00 00 fd 00 32 4c 1a
52 11 00 0a 20 20 20 20 20 20 00 00 00 fc 00 45
41 32 34 31 57 4d 0a 20 20 20 20 20 00 00 00 ff
00 39 38 31 30 31 36 33 36 4e 42 0a 20 20 01 71

00 ff ff ff ff ff ff 00 38 a3 4f 67 01 01 01 01
20 13 01 03 80 34 20 78 ea 9e f5 a6 56 4b 9a 25
12 50 54 bf ef 80 81 c0 81 80 90 40 8b c0 95 00
a9 40 b3 00 d1 00 28 3c 80 a0 70 b0 23 40 30 20
36 00 06 44 21 00 00 1a 00 00 00 fd 00 32 4c 1a
52 11 00 0a 20 20 20 20 20 20 00 00 00 fc 00 45
41 32 34 31 57 4d 0a 20 20 20 20 20 00 00 00 ff
00 39 38 31 30 31 36 33 36 4e 42 0a 20 20 01 71

00 ff ff ff ff ff ff 00 38 a3 4f 67 01 01 01 01
20 13 01 03 80 34 20 78 ea 9e f5 a6 56 4b 9a 25
12 50 54 bf ef 80 81 c0 81 80 90 40 8b c0 95 00
a9 40 b3 00 d1 00 28 3c 80 a0 70 b0 23 40 30 20
36 00 06 44 21 00 00 1a 00 00 00 fd 00 32 4c 1a
52 11 00 0a 20 20 20 20 20 20 00 00 00 fc 00 45
41 32 34 31 57 4d 0a 20 20 20 20 20 00 00 00 ff
00 39 38 31 30 31 36 33 36 4e 42 0a 20 20 01 71

00 ff ff ff ff ff ff 00 38 a3 4f 67 01 01 01 01
20 13 01 03 80 34 20 78 ea 9e f5 a6 56 4b 9a 25
12 50 54 bf ef 80 81 c0 81 80 90 40 8b c0 95 00
a9 40 b3 00 d1 00 28 3c 80 a0 70 b0 23 40 30 20
36 00 06 44 21 00 00 1a 00 00 00 fd 00 32 4c 1a
52 11 00 0a 20 20 20 20 20 20 00 00 00 fc 00 45
41 32 34 31 57 4d 0a 20 20 20 20 20 00 00 00 ff
00 39 38 31 30 31 36 33 36 4e 42 0a 20 20 01 71

00 ff ff ff ff ff ff 00 38 a3 4f 67 01 01 01 01
20 13 01 03 80 34 20 78 ea 9e f5 a6 56 4b 9a 25
12 50 54 bf ef 80 81 c0 81 80 90 40 8b c0 95 00
a9 40 b3 00 d1 00 28 3c 80 a0 70 b0 23 40 30 20
36 00 06 44 21 00 00 1a 00 00 00 fd 00 32 4c 1a
52 11 00 0a 20 20 20 20 20 20 00 00 00 fc 00 45
41 32 34 31 57 4d 0a 20 20 20 20 20 00 00 00 ff
00 39 38 31 30 31 36 33 36 4e 42 0a 20 20 01 71

00 ff ff ff ff ff ff 00 38 a3 4f 67 01 01 01 01
20 13 01 03 80 34 20 78 ea 9e f5 a6 56 4b 9a 25
12 50 54 bf ef 80 81 c0 81 80 90 40 8b c0 95 00
a9 40 b3 00 d1 00 28 3c 80 a0 70 b0 23 40 30 20
36 00 06 44 21 00 00 1a 00 00 00 fd 00 32 4c 1a
52 11 00 0a 20 20 20 20 20 20 00 00 00 fc 00 45
41 32 34 31 57 4d 0a 20 20 20 20 20 00 00 00 ff
00 39 38 31 30 31 36 33 36 4e 42 0a 20 20 01 71

00 ff ff ff ff ff ff 00 38 a3 4f 67 01 01 01 01
20 13 01 03 80 34 20 78 ea 9e f5 a6 56 4b 9a 25
12 50 54 bf ef 80 81 c0 81 80 90 40 8b c0 95 00
a9 40 b3 00 d1 00 28 3c 80 a0 70 b0 23 40 30 20
36 00 06 44 21 00 00 1a 00 00 00 fd 00 32 4c 1a
52 11 00 0a 20 20 20 20 20 20 00 00 00 fc 00 45
41 32 34 31 57 4d 0a 20 20 20 20 20 00 00 00 ff
00 39 38 31 30 31 36 33 36 4e 42 0a 20 20 01 71

00 ff ff ff ff ff ff 00 38 a3 4f 67 01 01 01 01
20 13 01 03 80 34 20 78 ea 9e f5 a6 56 4b 9a 25
12 50 54 bf ef 80 81 c0 81 80 90 40 8b c0 95 00
a9 40 b3 00 d1 00 28 3c 80 a0 70 b0 23 40 30 20
36 00 06 44 21 00 00 1a 00 00 00 fd 00 32 4c 1a
52 11 00 0a 20 20 20 20 20 20 00 00 00 fc 00 45
41 32 34 31 57 4d 0a 20 20 20 20 20 00 00 00 ff
00 39 38 31 30 31 36 33 36 4e 42 0a 20 20 01 71

00 ff ff ff ff ff ff 00 38 a3 4f 67 01 01 01 01
20 13 01 03 80 34 20 78 ea 9e f5 a6 56 4b 9a 25
12 50 54 bf ef 80 81 c0 81 80 90 40 8b c0 95 00
a9 40 b3 00 d1 00 28 3c 80 a0 70 b0 23 40 30 20
36 00 06 44 21 00 00 1a 00 00 00 fd 00 32 4c 1a
52 11 00 0a 20 20 20 20 20 20 00 00 00 fc 00 45
41 32 34 31 57 4d 0a 20 20 20 20 20 00 00 00 ff
00 39 38 31 30 31 36 33 36 4e 42 0a 20 20 01 71

00 ff ff ff ff ff ff 00 38 a3 4f 67 01 01 01 01
20 13 01 03 80 34 20 78 ea 9e f5 a6 56 4b 9a 25
12 50 54 bf ef 80 81 c0 81 80 90 40 8b c0 95 00
a9 40 b3 00 d1 00 28 3c 80 a0 70 b0 23 40 30 20
36 00 06 44 21 00 00 1a 00 00 00 fd 00 32 4c 1a
52 11 00 0a 20 20 20 20 20 20 00 00 00 fc 00 45
41 32 34 31 57 4d 0a 20 20 20 20 20 00 00 00 ff
00 39 38 31 30 31 36 33 36 4e 42 0a 20 20 01 71

00 ff ff ff ff ff ff 00 38 a3 4f 67 01 01 01 01
20 13 01 03 80 34 20 78 ea 9e f5 a6 56 4b 9a 25
12 50 54 bf ef 80 81 c0 81 80 90 40 8b c0 95 00
a9 40 b3 00 d1 00 28 3c 80 a0 70 b0 23 40 30 20
36 00 06 44 21 00 00 1a 00 00 00 fd 00 32 4c 1a
52 11 00 0a 20 20 20 20 20 20 00 00 00 fc 00 45
41 32 34 31 57 4d 0a 20 20 20 20 20 00 00 00 ff
00 39 38 31 30 31 36 33 36 4e 42 0a 20 20 01 71

00 ff ff ff ff ff ff 00 38 a3 4f 67 01 01 01 01
20 13 01 03 80 34 20 78 ea 9e f5 a6 56 4b 9a 25
12 50 54 bf ef 80 81 c0 81 80 90 40 8b c0 95 00
a9 40 b3 00 d1 00 28 3c 80 a0 70 b0 23 40 30 20
36 00 06 44 21 00 00 1a 00 00 00 fd 00 32 4c 1a
52 11 00 0a 20 20 20 20 20 20 00 00 00 fc 00 45
41 32 34 31 57 4d 0a 20 20 20 20 20 00 00 00 ff
00 39 38 31 30 31 36 33 36 4e 42 0a 20 20 01 71

00 ff ff ff ff ff ff 00 38 a3 4f 67 01 01 01 01
20 13 01 03 80 34 20 78 ea 9e f5 a6 56 4b 9a 25
12 50 54 bf ef 80 81 c0 81 80 90 40 8b c0 95 00
a9 40 b3 00 d1 00 28 3c 80 a0 70 b0 23 40 30 20
36 00 06 44 21 00 00 1a 00 00 00 fd 00 32 4c 1a
52 11 00 0a 20 20 20 20 20 20 00 00 00 fc 00 45
41 32 34 31 57 4d 0a 20 20 20 20 20 00 00 00 ff
00 39 38 31 30 31 36 33 36 4e 42 0a 20 20 01 71

00 ff ff ff ff ff ff 00 38 a3 4f 67 01 01 01 01
20 13 01 03 80 34 20 78 ea 9e f5 a6 56 4b 9a 25
12 50 54 bf ef 80 81 c0 81 80 90 40 8b c0 95 00
a9 40 b3 00 d1 00 28 3c 80 a0 70 b0 23 40 30 20
36 00 06 44 21 00 00 1a 00 00 00 fd 00 32 4c 1a
52 11 00 0a 20 20 20 20 20 20 00 00 00 fc 00 45
41 32 34 31 57 4d 0a 20 20 20 20 20 00 00 00 ff
00 39 38 31 30 31 36 33 36 4e 42 0a 20 20 01 71

00 ff ff ff ff ff ff 00 38 a3 4f 67 01 01 01 01
20 13 01 03 80 34 20 78 ea 9e f5 a6 56 4b 9a 25
12 50 54 bf ef 80 81 c0 81 80 90 40 8b c0 95 00
a9 40 b3 00 d1 00 28 3c 80 a0 70 b0 23 40 30 20
36 00 06 44 21 00 00 1a 00 00 00 fd 00 32 4c 1a
52 11 00 0a 20 20 20 20 20 20 00 00 00 fc 00 45
41 32 34 31 57 4d 0a 20 20 20 20 20 00 00 00 ff
00 39 38 31 30 31 36 33 36 4e 42 0a 20 20 01 71

00 ff ff ff ff ff ff 00 38 a3 4f 67 01 01 01 01
20 13 01 03 80 34 20 78 ea 9e f5 a6 56 4b 9a 25
12 50 54 bf ef 80 81 c0 81 80 90 40 8b c0 95 00
a9 40 b3 00 d1 00 28 3c 80 a0 70 b0 23 40 30 20
36 00 06 44 21 00 00 1a 00 00 00 fd 00 32 4c 1a
52 11 00 0a 20 20 20 20 20 20 00 00 00 fc 00 45
41 32 34 31 57 4d 0a 20 20 20 20 20 00 00 00 ff
00 39 38 31 30 31 36 33 36 4e 42 0a 20 20 01 71

00 ff ff ff ff ff ff 00 38 a3 4f 67 01 01 01 01
20 13 01 03 80 34 20 78 ea 9e f5 a6 56 4b 9a 25
12 50 54 bf ef 80 81 c0 81 80 90 40 8b c0 95 00
a9 40 b3 00 d1 00 28 3c 80 a0 70 b0 23 40 30 20
36 00 06 44 21 00 00 1a 00 00 00 fd 00 32 4c 1a
52 11 00 0a 20 20 20 20 20 20 00 00 00 fc 00 45
41 32 34 31 57 4d 0a 20 20 20 20 20 00 00 00 ff
00 39 38 31 30 31 36 33 36 4e 42 0a 20 20 01 71

00 ff ff ff ff ff ff 00 38 a3 4f 67 01 01 01 01
20 13 01 03 80 34 20 78 ea 9e f5 a6 56 4b 9a 25
12 50 54 bf ef 80 81 c0 81 80 90 40 8b c0 95 00
a9 40 b3 00 d1 00 28 3c 80 a0 70 b0 23 40 30 20
36 00 06 44 21 00 00 1a 00 00 00 fd 00 32 4c 1a
52 11 00 0a 20 20 20 20 20 20 00 00 00 fc 00 45
41 32 34 31 57 4d 0a 20 20 20 20 20 00 00 00 ff
00 39 38 31 30 31 36 33 36 4e 42 0a 20 20 01 71

00 ff ff ff ff ff ff 00 38 a3 4f 67 01 01 01 01
20 13 01 03 80 34 20 78 ea 9e f5 a6 56 4b 9a 25
12 50 54 bf ef 80 81 c0 81 80 90 40 8b c0 95 00
a9 40 b3 00 d1 00 28 3c 80 a0 70 b0 23 40 30 20
36 00 06 44 21 00 00 1a 00 00 00 fd 00 32 4c 1a
52 11 00 0a 20 20 20 20 20 20 00 00 00 fc 00 45
41 32 34 31 57 4d 0a 20 20 20 20 20 00 00 00 ff
00 39 38 31 30 31 36 33 36 4e 42 0a 20 20 01 71

00 ff ff ff ff ff ff 00 38 a3 4f 67 01 01 01 01
20 13 01 03 80 34 20 78 ea 9e f5 a6 56 4b 9a 25
12 50 54 bf ef 80 81 c0 81 80 90 40 8b c0 95 00
a9 40 b3 00 d1 00 28 3c 80 a0 70 b0 23 40 30 20
36 00 06 44 21 00 00 1a 00 00 00 fd 00 32 4c 1a
52 11 00 0a 20 20 20 20 20 20 00 00 00 fc 00 45
41 32 34 31 57 4d 0a 20 20 20 20 20 00 00 00 ff
00 39 38 31 30 31 36 33 36 4e 42 0a 20 20 01 71

00 ff ff ff ff ff ff 00 38 a3 4f 67 01 01 01 01
20 13 01 03 80 34 20 78 ea 9e f5 a6 56 4b 9a 25
12 50 54 bf ef 80 81 c0 81 80 90 40 8b c0 95 00
a9 40 b3 00 d1 00 28 3c 80 a0 70 b0 23 40 30 20
36 00 06 44 21 00 00 1a 00 00 00 fd 00 32 4c 1a
52 11 00 0a 20 20 20 20 20 20 00 00 00 fc 00 45
41 32 34 31 57 4d 0a 20 20 20 20 20 00 00 00 ff
00 39 38 31 30 31 36 33 36 4e 42 0a 20 20 01 71

00 ff ff ff ff ff ff 00 38 a3 4f 67 01 01 01 01
20 13 01 03 80 34 20 78 ea 9e f5 a6 56 4b 9a 25
12 50 54 bf ef 80 81 c0 81 80 90 40 8b c0 95 00
a9 40 b3 00 d1 00 28 3c 80 a0 70 b0 23 40 30 20
36 00 06 44 21 00 00 1a 00 00 00 fd 00 32 4c 1a
52 11 00 0a 20 20 20 20 20 20 00 00 00 fc 00 45
41 32 34 31 57 4d 0a 20 20 20 20 20 00 00 00 ff
00 39 38 31 30 31 36 33 36 4e 42 0a 20 20 01 71

00 ff ff ff ff ff ff 00 38 a3 4f 67 01 01 01 01
20 13 01 03 80 34 20 78 ea 9e f5 a6 56 4b 9a 25
12 50 54 bf ef 80 81 c0 81 80 90 40 8b c0 95 00
a9 40 b3 00 d1 00 28 3c 80 a0 70 b0 23 40 30 20
36 00 06 44 21 00 00 1a 00 00 00 fd 00 32 4c 1a
52 11 00 0a 20 20 20 20 20 20 00 00 00 fc 00 45
41 32 34 31 57 4d 0a 20 20 20 20 20 00 00 00 ff
00 39 38 31 30 31 36 33 36 4e 42 0a 20 20 01 71

00 ff ff ff ff ff ff 00 38 a3 4f 67 01 01 01 01
20 13 01 03 80 34 20 78 ea 9e f5 a6 56 4b 9a 25
12 50 54 bf ef 80 81 c0 81 80 90 40 8b c0 95 00
a9 40 b3 00 d1 00 28 3c 80 a0 70 b0 23 40 30 20
36 00 06 44 21 00 00 1a 00 00 00 fd 00 32 4c 1a
52 11 00 0a 20 20 20 20 20 20 00 00 00 fc 00 45
41 32 34 31 57 4d 0a 20 20 20 20 20 00 00 00 ff
00 39 38 31 30 31 36 33 36 4e 42 0a 20 20 01 71

00 ff ff ff ff ff ff 00 38 a3 4f 67 01 01 01 01
20 13 01 03 80 34 20 78 ea 9e f5 a6 56 4b 9a 25
12 50 54 bf ef 80 81 c0 81 80 90 40 8b c0 95 00
a9 40 b3 00 d1 00 28 3c 80 a0 70 b0 23 40 30 20
36 00 06 44 21 00 00 1a 00 00 00 fd 00 32 4c 1a
52 11 00 0a 20 20 20 20 20 20 00 00 00 fc 00 45
41 32 34 31 57 4d 0a 20 20 20 20 20 00 00 00 ff
00 39 38 31 30 31 36 33 36 4e 42 0a 20 20 01 71

00 ff ff ff ff ff ff 00 38 a3 4f 67 01 01 01 01
20 13 01 03 80 34 20 78 ea 9e f5 a6 56 4b 9a 25
12 50 54 bf ef 80 81 c0 81 80 90 40 8b c0 95 00
a9 40 b3 00 d1 00 28 3c 80 a0 70 b0 23 40 30 20
36 00 06 44 21 00 00 1a 00 00 00 fd 00 32 4c 1a
52 11 00 0a 20 20 20 20 20 20 00 00 00 fc 00 45
41 32 34 31 57 4d 0a 20 20 20 20 20 00 00 00 ff
00 39 38 31 30 31 36 33 36 4e 42 0a 20 20 01 71

00 ff ff ff ff ff ff 00 38 a3 4f 67 01 01 01 01
20 13 01 03 80 34 20 78 ea 9e f5 a6 56 4b 9a 25
12 50 54 bf ef 80 81 c0 81 80 90 40 8b c0 95 00
a9 40 b3 00 d1 00 28 3c 80 a0 70 b0 23 40 30 20
36 00 06 44 21 00 00 1a 00 00 00 fd 00 32 4c 1a
52 11 00 0a 20 20 20 20 20 20 00 00 00 fc 00 45
41 32 34 31 57 4d 0a 20 20 20 20 20 00 00 00 ff
00 39 38 31 30 31 36 33 36 4e 42 0a 20 20 01 71

00 ff ff ff ff ff ff 00 38 a3 4f 67 01 01 01 01
20 13 01 03 80 34 20 78 ea 9e f5 a6 56 4b 9a 25
12 50 54 bf ef 80 81 c0 81 80 90 40 8b c0 95 00
a9 40 b3 00 d1 00 28 3c 80 a0 70 b0 23 40 30 20
36 00 06 44 21 00 00 1a 00 00 00 fd 00 32 4c 1a
52 11 00 0a 20 20 20 20 20 20 00 00 00 fc 00 45
41 32 34 31 57 4d 0a 20 20 20 20 20 00 00 00 ff
00 39 38 31 30 31 36 33 36 4e 42 0a 20 20 01 71

00 ff ff ff ff ff ff 00 38 a3 4f 67 01 01 01 01
20 13 01 03 80 34 20 78 ea 9e f5 a6 56 4b 9a 25
12 50 54 bf ef 80 81 c0 81 80 90 40 8b c0 95 00
a9 40 b3 00 d1 00 28 3c 80 a0 70 b0 23 40 30 20
36 00 06 44 21 00 00 1a 00 00 00 fd 00 32 4c 1a
52 11 00 0a 20 20 20 20 20 20 00 00 00 fc 00 45
41 32 34 31 57 4d 0a 20 20 20 20 20 00 00 00 ff
00 39 38 31 30 31 36 33 36 4e 42 0a 20 20 01 71

00 ff ff ff ff ff ff 00 38 a3 4f 67 01 01 01 01
20 13 01 03 80 34 20 78 ea 9e f5 a6 56 4b 9a 25
12 50 54 bf ef 80 81 c0 81 80 90 40 8b c0 95 00
a9 40 b3 00 d1 00 28 3c 80 a0 70 b0 23 40 30 20
36 00 06 44 21 00 00 1a 00 00 00 fd 00 32 4c 1a
52 11 00 0a 20 20 20 20 20 20 00 00 00 fc 00 45
41 32 34 31 57 4d 0a 20 20 20 20 20 00 00 00 ff
00 39 38 31 30 31 36 33 36 4e 42 0a 20 20 01 71

00 ff ff ff ff ff ff 00 38 a3 4f 67 01 01 01 01
20 13 01 03 80 34 20 78 ea 9e f5 a6 56 4b 9a 25
12 50 54 bf ef 80 81 c0 81 80 90 40 8b c0 95 00
a9 40 b3 00 d1 00 28 3c 80 a0 70 b0 23 40 30 20
36 00 06 44 21 00 00 1a 00 00 00 fd 00 32 4c 1a
52 11 00 0a 20 20 20 20 20 20 00 00 00 fc 00 45
41 32 34 31 57 4d 0a 20 20 20 20 20 00 00 00 ff
00 39 38 31 30 31 36 33 36 4e 42 0a 20 20 01 71

00 ff ff ff ff ff ff 00 38 a3 4f 67 01 01 01 01
20 13 01 03 80 34 20 78 ea 9e f5 a6 56 4b 9a 25
12 50 54 bf ef 80 81 c0 81 80 90 40 8b c0 95 00
a9 40 b3 00 d1 00 28 3c 80 a0 70 b0 23 40 30 20
36 00 06 44 21 00 00 1a 00 00 00 fd 00 32 4c 1a
52 11 00 0a 20 20 20 20 20 20 00 00 00 fc 00 45
41 32 34 31 57 4d 0a 20 20 20 20 20 00 00 00 ff
00 39 38 31 30 31 36 33 36 4e 42 0a 20 20 01 71

00 ff ff ff ff ff ff 00 38 a3 4f 67 01 01 01 01
20 13 01 03 80 34 20 78 ea 9e f5 a6 56 4b 9a 25
12 50 54 bf ef 80 81 c0 81 80 90 40 8b c0 95 00
a9 40 b3 00 d1 00 28 3c 80 a0 70 b0 23 40 30 20
36 00 06 44 21 00 00 1a 00 00 00 fd 00 32 4c 1a
52 11 00 0a 20 20 20 20 20 20 00 00 00 fc 00 45
41 32 34 31 57 4d 0a 20 20 20 20 20 00 00 00 ff
00 39 38 31 30 31 36 33 36 4e 42 0a 20 20 01 71

00 ff ff ff ff ff ff 00 38 a3 4f 67 01 01 01 01
20 13 01 03 80 34 20 78 ea 9e f5 a6 56 4b 9a 25
12 50 54 bf ef 80 81 c0 81 80 90 40 8b c0 95 00
a9 40 b3 00 d1 00 28 3c 80 a0 70 b0 23 40 30 20
36 00 06 44 21 00 00 1a 00 00 00 fd 00 32 4c 1a
52 11 00 0a 20 20 20 20 20 20 00 00 00 fc 00 45
41 32 34 31 57 4d 0a 20 20 20 20 20 00 00 00 ff
00 39 38 31 30 31 36 33 36 4e 42 0a 20 20 01 71

----------------

Block 0, Base EDID:
  EDID Structure Version & Revision: 1.3
  Vendor & Product Identification:
    Manufacturer: NEC
    Model: 26447
    Serial Number: ...
    Made in: week 32 of 2009
  Basic Display Parameters & Features:
    Digital display
    Maximum image size: 52 cm x 32 cm
    Gamma: 2.20
    DPMS levels: Standby Suspend Off
    RGB color display
    First detailed timing is the preferred timing
  Color Characteristics:
    Red  : 0.6503, 0.3369
    Green: 0.2958, 0.6035
    Blue : 0.1474, 0.0732
    White: 0.3134, 0.3291
  Established Timings I & II:
    IBM     :   720x400    70.081663 Hz   9:5     31.467 kHz     28.320000 MHz
    DMT 0x04:   640x480    59.940476 Hz   4:3     31.469 kHz     25.175000 MHz
    Apple   :   640x480    66.666667 Hz   4:3     35.000 kHz     30.240000 MHz
    DMT 0x05:   640x480    72.808802 Hz   4:3     37.861 kHz     31.500000 MHz
    DMT 0x06:   640x480    75.000000 Hz   4:3     37.500 kHz     31.500000 MHz
    DMT 0x08:   800x600    56.250000 Hz   4:3     35.156 kHz     36.000000 MHz
    DMT 0x09:   800x600    60.316541 Hz   4:3     37.879 kHz     40.000000 MHz
    DMT 0x0a:   800x600    72.187572 Hz   4:3     48.077 kHz     50.000000 MHz
    DMT 0x0b:   800x600    75.000000 Hz   4:3     46.875 kHz     49.500000 MHz
    Apple   :   832x624    74.551266 Hz   4:3     49.726 kHz     57.284000 MHz
    DMT 0x10:  1024x768    60.003840 Hz   4:3     48.363 kHz     65.000000 MHz
    DMT 0x11:  1024x768    70.069359 Hz   4:3     56.476 kHz     75.000000 MHz
    DMT 0x12:  1024x768    75.028582 Hz   4:3     60.023 kHz     78.750000 MHz
    DMT 0x24:  1280x1024   75.024675 Hz   5:4     79.976 kHz    135.000000 MHz
    Apple   :  1152x870    75.061550 Hz 192:145   68.681 kHz    100.000000 MHz
  Standard Timings:
    DMT 0x55:  1280x720    60.000000 Hz  16:9     45.000 kHz     74.250000 MHz
    DMT 0x23:  1280x1024   60.019740 Hz   5:4     63.981 kHz    108.000000 MHz
    DMT 0x2a:  1400x1050   59.978442 Hz   4:3     65.317 kHz    121.750000 MHz
    GTF     :  1360x765    60.000341 Hz  16:9     47.520 kHz     84.396000 MHz
    DMT 0x2f:  1440x900    59.887445 Hz  16:10    55.935 kHz    106.500000 MHz
    DMT 0x33:  1600x1200   60.000000 Hz   4:3     75.000 kHz    162.000000 MHz
    DMT 0x3a:  1680x1050   59.954250 Hz  16:10    65.290 kHz    146.250000 MHz
    DMT 0x45:  1920x1200   59.884600 Hz  16:10    74.556 kHz    193.250000 MHz
  Detailed Timing Descriptors:
    DTD 1:  1920x1200   59.950171 Hz  16:10    74.038 kHz    154.000000 MHz (518 mm x 324 mm)
                 Hfront   48 Hsync  32 Hback   80 Hpol P
                 Vfront    3 Vsync   6 Vback   26 Vpol N
    Display Range Limits:
      Monitor ranges (GTF): 50-76 Hz V, 26-82 kHz H, max dotclock 170 MHz
    Display Product Name: 'EA241WM'
    Display Product Serial Number: ...
  Extension blocks: 1
Checksum: 0x71

----------------

Block 1, Unknown EDID Extension Block 0x00:
  00 ff ff ff ff ff ff 00 38 a3 4f 67 01 01 01 01 '........8.Og....'
  20 13 01 03 80 34 20 78 ea 9e f5 a6 56 4b 9a 25 ' ....4 x....VK.%'
  12 50 54 bf ef 80 81 c0 81 80 90 40 8b c0 95 00 '.PT........@....'
  a9 40 b3 00 d1 00 28 3c 80 a0 70 b0 23 40 30 20 '.@....(<..p.#@0 '
  36 00 06 44 21 00 00 1a 00 00 00 fd 00 32 4c 1a '6..D!........2L.'
  52 11 00 0a 20 20 20 20 20 20 00 00 00 fc 00 45 'R...      .....E'
  41 32 34 31 57 4d 0a 20 20 20 20 20 00 00 00 ff 'A241WM.     ....'
  00 39 38 31 30 31 36 33 36 4e 42 0a 20 20 01 71 '.98101636NB.  .q'
Checksum: 0x71

----------------

Block 2, Unknown EDID Extension Block 0x00:
  00 ff ff ff ff ff ff 00 38 a3 4f 67 01 01 01 01 '........8.Og....'
  20 13 01 03 80 34 20 78 ea 9e f5 a6 56 4b 9a 25 ' ....4 x....VK.%'
  12 50 54 bf ef 80 81 c0 81 80 90 40 8b c0 95 00 '.PT........@....'
  a9 40 b3 00 d1 00 28 3c 80 a0 70 b0 23 40 30 20 '.@....(<..p.#@0 '
  36 00 06 44 21 00 00 1a 00 00 00 fd 00 32 4c 1a '6..D!........2L.'
  52 11 00 0a 20 20 20 20 20 20 00 00 00 fc 00 45 'R...      .....E'
  41 32 34 31 57 4d 0a 20 20 20 20 20 00 00 00 ff 'A241WM.     ....'
  00 39 38 31 30 31 36 33 36 4e 42 0a 20 20 01 71 '.98101636NB.  .q'
Checksum: 0x71

----------------

Block 3, Unknown EDID Extension Block 0x00:
  00 ff ff ff ff ff ff 00 38 a3 4f 67 01 01 01 01 '........8.Og....'
  20 13 01 03 80 34 20 78 ea 9e f5 a6 56 4b 9a 25 ' ....4 x....VK.%'
  12 50 54 bf ef 80 81 c0 81 80 90 40 8b c0 95 00 '.PT........@....'
  a9 40 b3 00 d1 00 28 3c 80 a0 70 b0 23 40 30 20 '.@....(<..p.#@0 '
  36 00 06 44 21 00 00 1a 00 00 00 fd 00 32 4c 1a '6..D!........2L.'
  52 11 00 0a 20 20 20 20 20 20 00 00 00 fc 00 45 'R...      .....E'
  41 32 34 31 57 4d 0a 20 20 20 20 20 00 00 00 ff 'A241WM.     ....'
  00 39 38 31 30 31 36 33 36 4e 42 0a 20 20 01 71 '.98101636NB.  .q'
Checksum: 0x71

----------------

Block 4, Unknown EDID Extension Block 0x00:
  00 ff ff ff ff ff ff 00 38 a3 4f 67 01 01 01 01 '........8.Og....'
  20 13 01 03 80 34 20 78 ea 9e f5 a6 56 4b 9a 25 ' ....4 x....VK.%'
  12 50 54 bf ef 80 81 c0 81 80 90 40 8b c0 95 00 '.PT........@....'
  a9 40 b3 00 d1 00 28 3c 80 a0 70 b0 23 40 30 20 '.@....(<..p.#@0 '
  36 00 06 44 21 00 00 1a 00 00 00 fd 00 32 4c 1a '6..D!........2L.'
  52 11 00 0a 20 20 20 20 20 20 00 00 00 fc 00 45 'R...      .....E'
  41 32 34 31 57 4d 0a 20 20 20 20 20 00 00 00 ff 'A241WM.     ....'
  00 39 38 31 30 31 36 33 36 4e 42 0a 20 20 01 71 '.98101636NB.  .q'
Checksum: 0x71

----------------

Block 5, Unknown EDID Extension Block 0x00:
  00 ff ff ff ff ff ff 00 38 a3 4f 67 01 01 01 01 '........8.Og....'
  20 13 01 03 80 34 20 78 ea 9e f5 a6 56 4b 9a 25 ' ....4 x....VK.%'
  12 50 54 bf ef 80 81 c0 81 80 90 40 8b c0 95 00 '.PT........@....'
  a9 40 b3 00 d1 00 28 3c 80 a0 70 b0 23 40 30 20 '.@....(<..p.#@0 '
  36 00 06 44 21 00 00 1a 00 00 00 fd 00 32 4c 1a '6..D!........2L.'
  52 11 00 0a 20 20 20 20 20 20 00 00 00 fc 00 45 'R...      .....E'
  41 32 34 31 57 4d 0a 20 20 20 20 20 00 00 00 ff 'A241WM.     ....'
  00 39 38 31 30 31 36 33 36 4e 42 0a 20 20 01 71 '.98101636NB.  .q'
Checksum: 0x71

----------------

Block 6, Unknown EDID Extension Block 0x00:
  00 ff ff ff ff ff ff 00 38 a3 4f 67 01 01 01 01 '........8.Og....'
  20 13 01 03 80 34 20 78 ea 9e f5 a6 56 4b 9a 25 ' ....4 x....VK.%'
  12 50 54 bf ef 80 81 c0 81 80 90 40 8b c0 95 00 '.PT........@....'
  a9 40 b3 00 d1 00 28 3c 80 a0 70 b0 23 40 30 20 '.@....(<..p.#@0 '
  36 00 06 44 21 00 00 1a 00 00 00 fd 00 32 4c 1a '6..D!........2L.'
  52 11 00 0a 20 20 20 20 20 20 00 00 00 fc 00 45 'R...      .....E'
  41 32 34 31 57 4d 0a 20 20 20 20 20 00 00 00 ff 'A241WM.     ....'
  00 39 38 31 30 31 36 33 36 4e 42 0a 20 20 01 71 '.98101636NB.  .q'
Checksum: 0x71

----------------

Block 7, Unknown EDID Extension Block 0x00:
  00 ff ff ff ff ff ff 00 38 a3 4f 67 01 01 01 01 '........8.Og....'
  20 13 01 03 80 34 20 78 ea 9e f5 a6 56 4b 9a 25 ' ....4 x....VK.%'
  12 50 54 bf ef 80 81 c0 81 80 90 40 8b c0 95 00 '.PT........@....'
  a9 40 b3 00 d1 00 28 3c 80 a0 70 b0 23 40 30 20 '.@....(<..p.#@0 '
  36 00 06 44 21 00 00 1a 00 00 00 fd 00 32 4c 1a '6..D!........2L.'
  52 11 00 0a 20 20 20 20 20 20 00 00 00 fc 00 45 'R...      .....E'
  41 32 34 31 57 4d 0a 20 20 20 20 20 00 00 00 ff 'A241WM.     ....'
  00 39 38 31 30 31 36 33 36 4e 42 0a 20 20 01 71 '.98101636NB.  .q'
Checksum: 0x71

----------------

Block 8, Unknown EDID Extension Block 0x00:
  00 ff ff ff ff ff ff 00 38 a3 4f 67 01 01 01 01 '........8.Og....'
  20 13 01 03 80 34 20 78 ea 9e f5 a6 56 4b 9a 25 ' ....4 x....VK.%'
  12 50 54 bf ef 80 81 c0 81 80 90 40 8b c0 95 00 '.PT........@....'
  a9 40 b3 00 d1 00 28 3c 80 a0 70 b0 23 40 30 20 '.@....(<..p.#@0 '
  36 00 06 44 21 00 00 1a 00 00 00 fd 00 32 4c 1a '6..D!........2L.'
  52 11 00 0a 20 20 20 20 20 20 00 00 00 fc 00 45 'R...      .....E'
  41 32 34 31 57 4d 0a 20 20 20 20 20 00 00 00 ff 'A241WM.     ....'
  00 39 38 31 30 31 36 33 36 4e 42 0a 20 20 01 71 '.98101636NB.  .q'
Checksum: 0x71

----------------

Block 9, Unknown EDID Extension Block 0x00:
  00 ff ff ff ff ff ff 00 38 a3 4f 67 01 01 01 01 '........8.Og....'
  20 13 01 03 80 34 20 78 ea 9e f5 a6 56 4b 9a 25 ' ....4 x....VK.%'
  12 50 54 bf ef 80 81 c0 81 80 90 40 8b c0 95 00 '.PT........@....'
  a9 40 b3 00 d1 00 28 3c 80 a0 70 b0 23 40 30 20 '.@....(<..p.#@0 '
  36 00 06 44 21 00 00 1a 00 00 00 fd 00 32 4c 1a '6..D!........2L.'
  52 11 00 0a 20 20 20 20 20 20 00 00 00 fc 00 45 'R...      .....E'
  41 32 34 31 57 4d 0a 20 20 20 20 20 00 00 00 ff 'A241WM.     ....'
  00 39 38 31 30 31 36 33 36 4e 42 0a 20 20 01 71 '.98101636NB.  .q'
Checksum: 0x71

----------------

Block 10, Unknown EDID Extension Block 0x00:
  00 ff ff ff ff ff ff 00 38 a3 4f 67 01 01 01 01 '........8.Og....'
  20 13 01 03 80 34 20 78 ea 9e f5 a6 56 4b 9a 25 ' ....4 x....VK.%'
  12 50 54 bf ef 80 81 c0 81 80 90 40 8b c0 95 00 '.PT........@....'
  a9 40 b3 00 d1 00 28 3c 80 a0 70 b0 23 40 30 20 '.@....(<..p.#@0 '
  36 00 06 44 21 00 00 1a 00 00 00 fd 00 32 4c 1a '6..D!........2L.'
  52 11 00 0a 20 20 20 20 20 20 00 00 00 fc 00 45 'R...      .....E'
  41 32 34 31 57 4d 0a 20 20 20 20 20 00 00 00 ff 'A241WM.     ....'
  00 39 38 31 30 31 36 33 36 4e 42 0a 20 20 01 71 '.98101636NB.  .q'
Checksum: 0x71

----------------

Block 11, Unknown EDID Extension Block 0x00:
  00 ff ff ff ff ff ff 00 38 a3 4f 67 01 01 01 01 '........8.Og....'
  20 13 01 03 80 34 20 78 ea 9e f5 a6 56 4b 9a 25 ' ....4 x....VK.%'
  12 50 54 bf ef 80 81 c0 81 80 90 40 8b c0 95 00 '.PT........@....'
  a9 40 b3 00 d1 00 28 3c 80 a0 70 b0 23 40 30 20 '.@....(<..p.#@0 '
  36 00 06 44 21 00 00 1a 00 00 00 fd 00 32 4c 1a '6..D!........2L.'
  52 11 00 0a 20 20 20 20 20 20 00 00 00 fc 00 45 'R...      .....E'
  41 32 34 31 57 4d 0a 20 20 20 20 20 00 00 00 ff 'A241WM.     ....'
  00 39 38 31 30 31 36 33 36 4e 42 0a 20 20 01 71 '.98101636NB.  .q'
Checksum: 0x71

----------------

Block 12, Unknown EDID Extension Block 0x00:
  00 ff ff ff ff ff ff 00 38 a3 4f 67 01 01 01 01 '........8.Og....'
  20 13 01 03 80 34 20 78 ea 9e f5 a6 56 4b 9a 25 ' ....4 x....VK.%'
  12 50 54 bf ef 80 81 c0 81 80 90 40 8b c0 95 00 '.PT........@....'
  a9 40 b3 00 d1 00 28 3c 80 a0 70 b0 23 40 30 20 '.@....(<..p.#@0 '
  36 00 06 44 21 00 00 1a 00 00 00 fd 00 32 4c 1a '6..D!........2L.'
  52 11 00 0a 20 20 20 20 20 20 00 00 00 fc 00 45 'R...      .....E'
  41 32 34 31 57 4d 0a 20 20 20 20 20 00 00 00 ff 'A241WM.     ....'
  00 39 38 31 30 31 36 33 36 4e 42 0a 20 20 01 71 '.98101636NB.  .q'
Checksum: 0x71

----------------

Block 13, Unknown EDID Extension Block 0x00:
  00 ff ff ff ff ff ff 00 38 a3 4f 67 01 01 01 01 '........8.Og....'
  20 13 01 03 80 34 20 78 ea 9e f5 a6 56 4b 9a 25 ' ....4 x....VK.%'
  12 50 54 bf ef 80 81 c0 81 80 90 40 8b c0 95 00 '.PT........@....'
  a9 40 b3 00 d1 00 28 3c 80 a0 70 b0 23 40 30 20 '.@....(<..p.#@0 '
  36 00 06 44 21 00 00 1a 00 00 00 fd 00 32 4c 1a '6..D!........2L.'
  52 11 00 0a 20 20 20 20 20 20 00 00 00 fc 00 45 'R...      .....E'
  41 32 34 31 57 4d 0a 20 20 20 20 20 00 00 00 ff 'A241WM.     ....'
  00 39 38 31 30 31 36 33 36 4e 42 0a 20 20 01 71 '.98101636NB.  .q'
Checksum: 0x71

----------------

Block 14, Unknown EDID Extension Block 0x00:
  00 ff ff ff ff ff ff 00 38 a3 4f 67 01 01 01 01 '........8.Og....'
  20 13 01 03 80 34 20 78 ea 9e f5 a6 56 4b 9a 25 ' ....4 x....VK.%'
  12 50 54 bf ef 80 81 c0 81 80 90 40 8b c0 95 00 '.PT........@....'
  a9 40 b3 00 d1 00 28 3c 80 a0 70 b0 23 40 30 20 '.@....(<..p.#@0 '
  36 00 06 44 21 00 00 1a 00 00 00 fd 00 32 4c 1a '6..D!........2L.'
  52 11 00 0a 20 20 20 20 20 20 00 00 00 fc 00 45 'R...      .....E'
  41 32 34 31 57 4d 0a 20 20 20 20 20 00 00 00 ff 'A241WM.     ....'
  00 39 38 31 30 31 36 33 36 4e 42 0a 20 20 01 71 '.98101636NB.  .q'
Checksum: 0x71

----------------

Block 15, Unknown EDID Extension Block 0x00:
  00 ff ff ff ff ff ff 00 38 a3 4f 67 01 01 01 01 '........8.Og....'
  20 13 01 03 80 34 20 78 ea 9e f5 a6 56 4b 9a 25 ' ....4 x....VK.%'
  12 50 54 bf ef 80 81 c0 81 80 90 40 8b c0 95 00 '.PT........@....'
  a9 40 b3 00 d1 00 28 3c 80 a0 70 b0 23 40 30 20 '.@....(<..p.#@0 '
  36 00 06 44 21 00 00 1a 00 00 00 fd 00 32 4c 1a '6..D!........2L.'
  52 11 00 0a 20 20 20 20 20 20 00 00 00 fc 00 45 'R...      .....E'
  41 32 34 31 57 4d 0a 20 20 20 20 20 00 00 00 ff 'A241WM.     ....'
  00 39 38 31 30 31 36 33 36 4e 42 0a 20 20 01 71 '.98101636NB.  .q'
Checksum: 0x71

----------------

Block 16, Unknown EDID Extension Block 0x00:
  00 ff ff ff ff ff ff 00 38 a3 4f 67 01 01 01 01 '........8.Og....'
  20 13 01 03 80 34 20 78 ea 9e f5 a6 56 4b 9a 25 ' ....4 x....VK.%'
  12 50 54 bf ef 80 81 c0 81 80 90 40 8b c0 95 00 '.PT........@....'
  a9 40 b3 00 d1 00 28 3c 80 a0 70 b0 23 40 30 20 '.@....(<..p.#@0 '
  36 00 06 44 21 00 00 1a 00 00 00 fd 00 32 4c 1a '6..D!........2L.'
  52 11 00 0a 20 20 20 20 20 20 00 00 00 fc 00 45 'R...      .....E'
  41 32 34 31 57 4d 0a 20 20 20 20 20 00 00 00 ff 'A241WM.     ....'
  00 39 38 31 30 31 36 33 36 4e 42 0a 20 20 01 71 '.98101636NB.  .q'
Checksum: 0x71

----------------

Block 17, Unknown EDID Extension Block 0x00:
  00 ff ff ff ff ff ff 00 38 a3 4f 67 01 01 01 01 '........8.Og....'
  20 13 01 03 80 34 20 78 ea 9e f5 a6 56 4b 9a 25 ' ....4 x....VK.%'
  12 50 54 bf ef 80 81 c0 81 80 90 40 8b c0 95 00 '.PT........@....'
  a9 40 b3 00 d1 00 28 3c 80 a0 70 b0 23 40 30 20 '.@....(<..p.#@0 '
  36 00 06 44 21 00 00 1a 00 00 00 fd 00 32 4c 1a '6..D!........2L.'
  52 11 00 0a 20 20 20 20 20 20 00 00 00 fc 00 45 'R...      .....E'
  41 32 34 31 57 4d 0a 20 20 20 20 20 00 00 00 ff 'A241WM.     ....'
  00 39 38 31 30 31 36 33 36 4e 42 0a 20 20 01 71 '.98101636NB.  .q'
Checksum: 0x71

----------------

Block 18, Unknown EDID Extension Block 0x00:
  00 ff ff ff ff ff ff 00 38 a3 4f 67 01 01 01 01 '........8.Og....'
  20 13 01 03 80 34 20 78 ea 9e f5 a6 56 4b 9a 25 ' ....4 x....VK.%'
  12 50 54 bf ef 80 81 c0 81 80 90 40 8b c0 95 00 '.PT........@....'
  a9 40 b3 00 d1 00 28 3c 80 a0 70 b0 23 40 30 20 '.@....(<..p.#@0 '
  36 00 06 44 21 00 00 1a 00 00 00 fd 00 32 4c 1a '6..D!........2L.'
  52 11 00 0a 20 20 20 20 20 20 00 00 00 fc 00 45 'R...      .....E'
  41 32 34 31 57 4d 0a 20 20 20 20 20 00 00 00 ff 'A241WM.     ....'
  00 39 38 31 30 31 36 33 36 4e 42 0a 20 20 01 71 '.98101636NB.  .q'
Checksum: 0x71

----------------

Block 19, Unknown EDID Extension Block 0x00:
  00 ff ff ff ff ff ff 00 38 a3 4f 67 01 01 01 01 '........8.Og....'
  20 13 01 03 80 34 20 78 ea 9e f5 a6 56 4b 9a 25 ' ....4 x....VK.%'
  12 50 54 bf ef 80 81 c0 81 80 90 40 8b c0 95 00 '.PT........@....'
  a9 40 b3 00 d1 00 28 3c 80 a0 70 b0 23 40 30 20 '.@....(<..p.#@0 '
  36 00 06 44 21 00 00 1a 00 00 00 fd 00 32 4c 1a '6..D!........2L.'
  52 11 00 0a 20 20 20 20 20 20 00 00 00 fc 00 45 'R...      .....E'
  41 32 34 31 57 4d 0a 20 20 20 20 20 00 00 00 ff 'A241WM.     ....'
  00 39 38 31 30 31 36 33 36 4e 42 0a 20 20 01 71 '.98101636NB.  .q'
Checksum: 0x71

----------------

Block 20, Unknown EDID Extension Block 0x00:
  00 ff ff ff ff ff ff 00 38 a3 4f 67 01 01 01 01 '........8.Og....'
  20 13 01 03 80 34 20 78 ea 9e f5 a6 56 4b 9a 25 ' ....4 x....VK.%'
  12 50 54 bf ef 80 81 c0 81 80 90 40 8b c0 95 00 '.PT........@....'
  a9 40 b3 00 d1 00 28 3c 80 a0 70 b0 23 40 30 20 '.@....(<..p.#@0 '
  36 00 06 44 21 00 00 1a 00 00 00 fd 00 32 4c 1a '6..D!........2L.'
  52 11 00 0a 20 20 20 20 20 20 00 00 00 fc 00 45 'R...      .....E'
  41 32 34 31 57 4d 0a 20 20 20 20 20 00 00 00 ff 'A241WM.     ....'
  00 39 38 31 30 31 36 33 36 4e 42 0a 20 20 01 71 '.98101636NB.  .q'
Checksum: 0x71

----------------

Block 21, Unknown EDID Extension Block 0x00:
  00 ff ff ff ff ff ff 00 38 a3 4f 67 01 01 01 01 '........8.Og....'
  20 13 01 03 80 34 20 78 ea 9e f5 a6 56 4b 9a 25 ' ....4 x....VK.%'
  12 50 54 bf ef 80 81 c0 81 80 90 40 8b c0 95 00 '.PT........@....'
  a9 40 b3 00 d1 00 28 3c 80 a0 70 b0 23 40 30 20 '.@....(<..p.#@0 '
  36 00 06 44 21 00 00 1a 00 00 00 fd 00 32 4c 1a '6..D!........2L.'
  52 11 00 0a 20 20 20 20 20 20 00 00 00 fc 00 45 'R...      .....E'
  41 32 34 31 57 4d 0a 20 20 20 20 20 00 00 00 ff 'A241WM.     ....'
  00 39 38 31 30 31 36 33 36 4e 42 0a 20 20 01 71 '.98101636NB.  .q'
Checksum: 0x71

----------------

Block 22, Unknown EDID Extension Block 0x00:
  00 ff ff ff ff ff ff 00 38 a3 4f 67 01 01 01 01 '........8.Og....'
  20 13 01 03 80 34 20 78 ea 9e f5 a6 56 4b 9a 25 ' ....4 x....VK.%'
  12 50 54 bf ef 80 81 c0 81 80 90 40 8b c0 95 00 '.PT........@....'
  a9 40 b3 00 d1 00 28 3c 80 a0 70 b0 23 40 30 20 '.@....(<..p.#@0 '
  36 00 06 44 21 00 00 1a 00 00 00 fd 00 32 4c 1a '6..D!........2L.'
  52 11 00 0a 20 20 20 20 20 20 00 00 00 fc 00 45 'R...      .....E'
  41 32 34 31 57 4d 0a 20 20 20 20 20 00 00 00 ff 'A241WM.     ....'
  00 39 38 31 30 31 36 33 36 4e 42 0a 20 20 01 71 '.98101636NB.  .q'
Checksum: 0x71

----------------

Block 23, Unknown EDID Extension Block 0x00:
  00 ff ff ff ff ff ff 00 38 a3 4f 67 01 01 01 01 '........8.Og....'
  20 13 01 03 80 34 20 78 ea 9e f5 a6 56 4b 9a 25 ' ....4 x....VK.%'
  12 50 54 bf ef 80 81 c0 81 80 90 40 8b c0 95 00 '.PT........@....'
  a9 40 b3 00 d1 00 28 3c 80 a0 70 b0 23 40 30 20 '.@....(<..p.#@0 '
  36 00 06 44 21 00 00 1a 00 00 00 fd 00 32 4c 1a '6..D!........2L.'
  52 11 00 0a 20 20 20 20 20 20 00 00 00 fc 00 45 'R...      .....E'
  41 32 34 31 57 4d 0a 20 20 20 20 20 00 00 00 ff 'A241WM.     ....'
  00 39 38 31 30 31 36 33 36 4e 42 0a 20 20 01 71 '.98101636NB.  .q'
Checksum: 0x71

----------------

Block 24, Unknown EDID Extension Block 0x00:
  00 ff ff ff ff ff ff 00 38 a3 4f 67 01 01 01 01 '........8.Og....'
  20 13 01 03 80 34 20 78 ea 9e f5 a6 56 4b 9a 25 ' ....4 x....VK.%'
  12 50 54 bf ef 80 81 c0 81 80 90 40 8b c0 95 00 '.PT........@....'
  a9 40 b3 00 d1 00 28 3c 80 a0 70 b0 23 40 30 20 '.@....(<..p.#@0 '
  36 00 06 44 21 00 00 1a 00 00 00 fd 00 32 4c 1a '6..D!........2L.'
  52 11 00 0a 20 20 20 20 20 20 00 00 00 fc 00 45 'R...      .....E'
  41 32 34 31 57 4d 0a 20 20 20 20 20 00 00 00 ff 'A241WM.     ....'
  00 39 38 31 30 31 36 33 36 4e 42 0a 20 20 01 71 '.98101636NB.  .q'
Checksum: 0x71

----------------

Block 25, Unknown EDID Extension Block 0x00:
  00 ff ff ff ff ff ff 00 38 a3 4f 67 01 01 01 01 '........8.Og....'
  20 13 01 03 80 34 20 78 ea 9e f5 a6 56 4b 9a 25 ' ....4 x....VK.%'
  12 50 54 bf ef 80 81 c0 81 80 90 40 8b c0 95 00 '.PT........@....'
  a9 40 b3 00 d1 00 28 3c 80 a0 70 b0 23 40 30 20 '.@....(<..p.#@0 '
  36 00 06 44 21 00 00 1a 00 00 00 fd 00 32 4c 1a '6..D!........2L.'
  52 11 00 0a 20 20 20 20 20 20 00 00 00 fc 00 45 'R...      .....E'
  41 32 34 31 57 4d 0a 20 20 20 20 20 00 00 00 ff 'A241WM.     ....'
  00 39 38 31 30 31 36 33 36 4e 42 0a 20 20 01 71 '.98101636NB.  .q'
Checksum: 0x71

----------------

Block 26, Unknown EDID Extension Block 0x00:
  00 ff ff ff ff ff ff 00 38 a3 4f 67 01 01 01 01 '........8.Og....'
  20 13 01 03 80 34 20 78 ea 9e f5 a6 56 4b 9a 25 ' ....4 x....VK.%'
  12 50 54 bf ef 80 81 c0 81 80 90 40 8b c0 95 00 '.PT........@....'
  a9 40 b3 00 d1 00 28 3c 80 a0 70 b0 23 40 30 20 '.@....(<..p.#@0 '
  36 00 06 44 21 00 00 1a 00 00 00 fd 00 32 4c 1a '6..D!........2L.'
  52 11 00 0a 20 20 20 20 20 20 00 00 00 fc 00 45 'R...      .....E'
  41 32 34 31 57 4d 0a 20 20 20 20 20 00 00 00 ff 'A241WM.     ....'
  00 39 38 31 30 31 36 33 36 4e 42 0a 20 20 01 71 '.98101636NB.  .q'
Checksum: 0x71

----------------

Block 27, Unknown EDID Extension Block 0x00:
  00 ff ff ff ff ff ff 00 38 a3 4f 67 01 01 01 01 '........8.Og....'
  20 13 01 03 80 34 20 78 ea 9e f5 a6 56 4b 9a 25 ' ....4 x....VK.%'
  12 50 54 bf ef 80 81 c0 81 80 90 40 8b c0 95 00 '.PT........@....'
  a9 40 b3 00 d1 00 28 3c 80 a0 70 b0 23 40 30 20 '.@....(<..p.#@0 '
  36 00 06 44 21 00 00 1a 00 00 00 fd 00 32 4c 1a '6..D!........2L.'
  52 11 00 0a 20 20 20 20 20 20 00 00 00 fc 00 45 'R...      .....E'
  41 32 34 31 57 4d 0a 20 20 20 20 20 00 00 00 ff 'A241WM.     ....'
  00 39 38 31 30 31 36 33 36 4e 42 0a 20 20 01 71 '.98101636NB.  .q'
Checksum: 0x71

----------------

Block 28, Unknown EDID Extension Block 0x00:
  00 ff ff ff ff ff ff 00 38 a3 4f 67 01 01 01 01 '........8.Og....'
  20 13 01 03 80 34 20 78 ea 9e f5 a6 56 4b 9a 25 ' ....4 x....VK.%'
  12 50 54 bf ef 80 81 c0 81 80 90 40 8b c0 95 00 '.PT........@....'
  a9 40 b3 00 d1 00 28 3c 80 a0 70 b0 23 40 30 20 '.@....(<..p.#@0 '
  36 00 06 44 21 00 00 1a 00 00 00 fd 00 32 4c 1a '6..D!........2L.'
  52 11 00 0a 20 20 20 20 20 20 00 00 00 fc 00 45 'R...      .....E'
  41 32 34 31 57 4d 0a 20 20 20 20 20 00 00 00 ff 'A241WM.     ....'
  00 39 38 31 30 31 36 33 36 4e 42 0a 20 20 01 71 '.98101636NB.  .q'
Checksum: 0x71

----------------

Block 29, Unknown EDID Extension Block 0x00:
  00 ff ff ff ff ff ff 00 38 a3 4f 67 01 01 01 01 '........8.Og....'
  20 13 01 03 80 34 20 78 ea 9e f5 a6 56 4b 9a 25 ' ....4 x....VK.%'
  12 50 54 bf ef 80 81 c0 81 80 90 40 8b c0 95 00 '.PT........@....'
  a9 40 b3 00 d1 00 28 3c 80 a0 70 b0 23 40 30 20 '.@....(<..p.#@0 '
  36 00 06 44 21 00 00 1a 00 00 00 fd 00 32 4c 1a '6..D!........2L.'
  52 11 00 0a 20 20 20 20 20 20 00 00 00 fc 00 45 'R...      .....E'
  41 32 34 31 57 4d 0a 20 20 20 20 20 00 00 00 ff 'A241WM.     ....'
  00 39 38 31 30 31 36 33 36 4e 42 0a 20 20 01 71 '.98101636NB.  .q'
Checksum: 0x71

----------------

Block 30, Unknown EDID Extension Block 0x00:
  00 ff ff ff ff ff ff 00 38 a3 4f 67 01 01 01 01 '........8.Og....'
  20 13 01 03 80 34 20 78 ea 9e f5 a6 56 4b 9a 25 ' ....4 x....VK.%'
  12 50 54 bf ef 80 81 c0 81 80 90 40 8b c0 95 00 '.PT........@....'
  a9 40 b3 00 d1 00 28 3c 80 a0 70 b0 23 40 30 20 '.@....(<..p.#@0 '
  36 00 06 44 21 00 00 1a 00 00 00 fd 00 32 4c 1a '6..D!........2L.'
  52 11 00 0a 20 20 20 20 20 20 00 00 00 fc 00 45 'R...      .....E'
  41 32 34 31 57 4d 0a 20 20 20 20 20 00 00 00 ff 'A241WM.     ....'
  00 39 38 31 30 31 36 33 36 4e 42 0a 20 20 01 71 '.98101636NB.  .q'
Checksum: 0x71

----------------

Block 31, Unknown EDID Extension Block 0x00:
  00 ff ff ff ff ff ff 00 38 a3 4f 67 01 01 01 01 '........8.Og....'
  20 13 01 03 80 34 20 78 ea 9e f5 a6 56 4b 9a 25 ' ....4 x....VK.%'
  12 50 54 bf ef 80 81 c0 81 80 90 40 8b c0 95 00 '.PT........@....'
  a9 40 b3 00 d1 00 28 3c 80 a0 70 b0 23 40 30 20 '.@....(<..p.#@0 '
  36 00 06 44 21 00 00 1a 00 00 00 fd 00 32 4c 1a '6..D!........2L.'
  52 11 00 0a 20 20 20 20 20 20 00 00 00 fc 00 45 'R...      .....E'
  41 32 34 31 57 4d 0a 20 20 20 20 20 00 00 00 ff 'A241WM.     ....'
  00 39 38 31 30 31 36 33 36 4e 42 0a 20 20 01 71 '.98101636NB.  .q'
Checksum: 0x71

----------------

Block 32, Unknown EDID Extension Block 0x00:
  00 ff ff ff ff ff ff 00 38 a3 4f 67 01 01 01 01 '........8.Og....'
  20 13 01 03 80 34 20 78 ea 9e f5 a6 56 4b 9a 25 ' ....4 x....VK.%'
  12 50 54 bf ef 80 81 c0 81 80 90 40 8b c0 95 00 '.PT........@....'
  a9 40 b3 00 d1 00 28 3c 80 a0 70 b0 23 40 30 20 '.@....(<..p.#@0 '
  36 00 06 44 21 00 00 1a 00 00 00 fd 00 32 4c 1a '6..D!........2L.'
  52 11 00 0a 20 20 20 20 20 20 00 00 00 fc 00 45 'R...      .....E'
  41 32 34 31 57 4d 0a 20 20 20 20 20 00 00 00 ff 'A241WM.     ....'
  00 39 38 31 30 31 36 33 36 4e 42 0a 20 20 01 71 '.98101636NB.  .q'
Checksum: 0x71

----------------

Block 33, Unknown EDID Extension Block 0x00:
  00 ff ff ff ff ff ff 00 38 a3 4f 67 01 01 01 01 '........8.Og....'
  20 13 01 03 80 34 20 78 ea 9e f5 a6 56 4b 9a 25 ' ....4 x....VK.%'
  12 50 54 bf ef 80 81 c0 81 80 90 40 8b c0 95 00 '.PT........@....'
  a9 40 b3 00 d1 00 28 3c 80 a0 70 b0 23 40 30 20 '.@....(<..p.#@0 '
  36 00 06 44 21 00 00 1a 00 00 00 fd 00 32 4c 1a '6..D!........2L.'
  52 11 00 0a 20 20 20 20 20 20 00 00 00 fc 00 45 'R...      .....E'
  41 32 34 31 57 4d 0a 20 20 20 20 20 00 00 00 ff 'A241WM.     ....'
  00 39 38 31 30 31 36 33 36 4e 42 0a 20 20 01 71 '.98101636NB.  .q'
Checksum: 0x71

----------------

Block 34, Unknown EDID Extension Block 0x00:
  00 ff ff ff ff ff ff 00 38 a3 4f 67 01 01 01 01 '........8.Og....'
  20 13 01 03 80 34 20 78 ea 9e f5 a6 56 4b 9a 25 ' ....4 x....VK.%'
  12 50 54 bf ef 80 81 c0 81 80 90 40 8b c0 95 00 '.PT........@....'
  a9 40 b3 00 d1 00 28 3c 80 a0 70 b0 23 40 30 20 '.@....(<..p.#@0 '
  36 00 06 44 21 00 00 1a 00 00 00 fd 00 32 4c 1a '6..D!........2L.'
  52 11 00 0a 20 20 20 20 20 20 00 00 00 fc 00 45 'R...      .....E'
  41 32 34 31 57 4d 0a 20 20 20 20 20 00 00 00 ff 'A241WM.     ....'
  00 39 38 31 30 31 36 33 36 4e 42 0a 20 20 01 71 '.98101636NB.  .q'
Checksum: 0x71

----------------

Block 35, Unknown EDID Extension Block 0x00:
  00 ff ff ff ff ff ff 00 38 a3 4f 67 01 01 01 01 '........8.Og....'
  20 13 01 03 80 34 20 78 ea 9e f5 a6 56 4b 9a 25 ' ....4 x....VK.%'
  12 50 54 bf ef 80 81 c0 81 80 90 40 8b c0 95 00 '.PT........@....'
  a9 40 b3 00 d1 00 28 3c 80 a0 70 b0 23 40 30 20 '.@....(<..p.#@0 '
  36 00 06 44 21 00 00 1a 00 00 00 fd 00 32 4c 1a '6..D!........2L.'
  52 11 00 0a 20 20 20 20 20 20 00 00 00 fc 00 45 'R...      .....E'
  41 32 34 31 57 4d 0a 20 20 20 20 20 00 00 00 ff 'A241WM.     ....'
  00 39 38 31 30 31 36 33 36 4e 42 0a 20 20 01 71 '.98101636NB.  .q'
Checksum: 0x71

----------------

Block 36, Unknown EDID Extension Block 0x00:
  00 ff ff ff ff ff ff 00 38 a3 4f 67 01 01 01 01 '........8.Og....'
  20 13 01 03 80 34 20 78 ea 9e f5 a6 56 4b 9a 25 ' ....4 x....VK.%'
  12 50 54 bf ef 80 81 c0 81 80 90 40 8b c0 95 00 '.PT........@....'
  a9 40 b3 00 d1 00 28 3c 80 a0 70 b0 23 40 30 20 '.@....(<..p.#@0 '
  36 00 06 44 21 00 00 1a 00 00 00 fd 00 32 4c 1a '6..D!........2L.'
  52 11 00 0a 20 20 20 20 20 20 00 00 00 fc 00 45 'R...      .....E'
  41 32 34 31 57 4d 0a 20 20 20 20 20 00 00 00 ff 'A241WM.     ....'
  00 39 38 31 30 31 36 33 36 4e 42 0a 20 20 01 71 '.98101636NB.  .q'
Checksum: 0x71

----------------

Block 37, Unknown EDID Extension Block 0x00:
  00 ff ff ff ff ff ff 00 38 a3 4f 67 01 01 01 01 '........8.Og....'
  20 13 01 03 80 34 20 78 ea 9e f5 a6 56 4b 9a 25 ' ....4 x....VK.%'
  12 50 54 bf ef 80 81 c0 81 80 90 40 8b c0 95 00 '.PT........@....'
  a9 40 b3 00 d1 00 28 3c 80 a0 70 b0 23 40 30 20 '.@....(<..p.#@0 '
  36 00 06 44 21 00 00 1a 00 00 00 fd 00 32 4c 1a '6..D!........2L.'
  52 11 00 0a 20 20 20 20 20 20 00 00 00 fc 00 45 'R...      .....E'
  41 32 34 31 57 4d 0a 20 20 20 20 20 00 00 00 ff 'A241WM.     ....'
  00 39 38 31 30 31 36 33 36 4e 42 0a 20 20 01 71 '.98101636NB.  .q'
Checksum: 0x71

----------------

Block 38, Unknown EDID Extension Block 0x00:
  00 ff ff ff ff ff ff 00 38 a3 4f 67 01 01 01 01 '........8.Og....'
  20 13 01 03 80 34 20 78 ea 9e f5 a6 56 4b 9a 25 ' ....4 x....VK.%'
  12 50 54 bf ef 80 81 c0 81 80 90 40 8b c0 95 00 '.PT........@....'
  a9 40 b3 00 d1 00 28 3c 80 a0 70 b0 23 40 30 20 '.@....(<..p.#@0 '
  36 00 06 44 21 00 00 1a 00 00 00 fd 00 32 4c 1a '6..D!........2L.'
  52 11 00 0a 20 20 20 20 20 20 00 00 00 fc 00 45 'R...      .....E'
  41 32 34 31 57 4d 0a 20 20 20 20 20 00 00 00 ff 'A241WM.     ....'
  00 39 38 31 30 31 36 33 36 4e 42 0a 20 20 01 71 '.98101636NB.  .q'
Checksum: 0x71

----------------

Block 39, Unknown EDID Extension Block 0x00:
  00 ff ff ff ff ff ff 00 38 a3 4f 67 01 01 01 01 '........8.Og....'
  20 13 01 03 80 34 20 78 ea 9e f5 a6 56 4b 9a 25 ' ....4 x....VK.%'
  12 50 54 bf ef 80 81 c0 81 80 90 40 8b c0 95 00 '.PT........@....'
  a9 40 b3 00 d1 00 28 3c 80 a0 70 b0 23 40 30 20 '.@....(<..p.#@0 '
  36 00 06 44 21 00 00 1a 00 00 00 fd 00 32 4c 1a '6..D!........2L.'
  52 11 00 0a 20 20 20 20 20 20 00 00 00 fc 00 45 'R...      .....E'
  41 32 34 31 57 4d 0a 20 20 20 20 20 00 00 00 ff 'A241WM.     ....'
  00 39 38 31 30 31 36 33 36 4e 42 0a 20 20 01 71 '.98101636NB.  .q'
Checksum: 0x71

----------------

Block 40, Unknown EDID Extension Block 0x00:
  00 ff ff ff ff ff ff 00 38 a3 4f 67 01 01 01 01 '........8.Og....'
  20 13 01 03 80 34 20 78 ea 9e f5 a6 56 4b 9a 25 ' ....4 x....VK.%'
  12 50 54 bf ef 80 81 c0 81 80 90 40 8b c0 95 00 '.PT........@....'
  a9 40 b3 00 d1 00 28 3c 80 a0 70 b0 23 40 30 20 '.@....(<..p.#@0 '
  36 00 06 44 21 00 00 1a 00 00 00 fd 00 32 4c 1a '6..D!........2L.'
  52 11 00 0a 20 20 20 20 20 20 00 00 00 fc 00 45 'R...      .....E'
  41 32 34 31 57 4d 0a 20 20 20 20 20 00 00 00 ff 'A241WM.     ....'
  00 39 38 31 30 31 36 33 36 4e 42 0a 20 20 01 71 '.98101636NB.  .q'
Checksum: 0x71

----------------

Block 41, Unknown EDID Extension Block 0x00:
  00 ff ff ff ff ff ff 00 38 a3 4f 67 01 01 01 01 '........8.Og....'
  20 13 01 03 80 34 20 78 ea 9e f5 a6 56 4b 9a 25 ' ....4 x....VK.%'
  12 50 54 bf ef 80 81 c0 81 80 90 40 8b c0 95 00 '.PT........@....'
  a9 40 b3 00 d1 00 28 3c 80 a0 70 b0 23 40 30 20 '.@....(<..p.#@0 '
  36 00 06 44 21 00 00 1a 00 00 00 fd 00 32 4c 1a '6..D!........2L.'
  52 11 00 0a 20 20 20 20 20 20 00 00 00 fc 00 45 'R...      .....E'
  41 32 34 31 57 4d 0a 20 20 20 20 20 00 00 00 ff 'A241WM.     ....'
  00 39 38 31 30 31 36 33 36 4e 42 0a 20 20 01 71 '.98101636NB.  .q'
Checksum: 0x71

----------------

Block 42, Unknown EDID Extension Block 0x00:
  00 ff ff ff ff ff ff 00 38 a3 4f 67 01 01 01 01 '........8.Og....'
  20 13 01 03 80 34 20 78 ea 9e f5 a6 56 4b 9a 25 ' ....4 x....VK.%'
  12 50 54 bf ef 80 81 c0 81 80 90 40 8b c0 95 00 '.PT........@....'
  a9 40 b3 00 d1 00 28 3c 80 a0 70 b0 23 40 30 20 '.@....(<..p.#@0 '
  36 00 06 44 21 00 00 1a 00 00 00 fd 00 32 4c 1a '6..D!........2L.'
  52 11 00 0a 20 20 20 20 20 20 00 00 00 fc 00 45 'R...      .....E'
  41 32 34 31 57 4d 0a 20 20 20 20 20 00 00 00 ff 'A241WM.     ....'
  00 39 38 31 30 31 36 33 36 4e 42 0a 20 20 01 71 '.98101636NB.  .q'
Checksum: 0x71

----------------

Block 43, Unknown EDID Extension Block 0x00:
  00 ff ff ff ff ff ff 00 38 a3 4f 67 01 01 01 01 '........8.Og....'
  20 13 01 03 80 34 20 78 ea 9e f5 a6 56 4b 9a 25 ' ....4 x....VK.%'
  12 50 54 bf ef 80 81 c0 81 80 90 40 8b c0 95 00 '.PT........@....'
  a9 40 b3 00 d1 00 28 3c 80 a0 70 b0 23 40 30 20 '.@....(<..p.#@0 '
  36 00 06 44 21 00 00 1a 00 00 00 fd 00 32 4c 1a '6..D!........2L.'
  52 11 00 0a 20 20 20 20 20 20 00 00 00 fc 00 45 'R...      .....E'
  41 32 34 31 57 4d 0a 20 20 20 20 20 00 00 00 ff 'A241WM.     ....'
  00 39 38 31 30 31 36 33 36 4e 42 0a 20 20 01 71 '.98101636NB.  .q'
Checksum: 0x71

----------------

Block 44, Unknown EDID Extension Block 0x00:
  00 ff ff ff ff ff ff 00 38 a3 4f 67 01 01 01 01 '........8.Og....'
  20 13 01 03 80 34 20 78 ea 9e f5 a6 56 4b 9a 25 ' ....4 x....VK.%'
  12 50 54 bf ef 80 81 c0 81 80 90 40 8b c0 95 00 '.PT........@....'
  a9 40 b3 00 d1 00 28 3c 80 a0 70 b0 23 40 30 20 '.@....(<..p.#@0 '
  36 00 06 44 21 00 00 1a 00 00 00 fd 00 32 4c 1a '6..D!........2L.'
  52 11 00 0a 20 20 20 20 20 20 00 00 00 fc 00 45 'R...      .....E'
  41 32 34 31 57 4d 0a 20 20 20 20 20 00 00 00 ff 'A241WM.     ....'
  00 39 38 31 30 31 36 33 36 4e 42 0a 20 20 01 71 '.98101636NB.  .q'
Checksum: 0x71

----------------

Block 45, Unknown EDID Extension Block 0x00:
  00 ff ff ff ff ff ff 00 38 a3 4f 67 01 01 01 01 '........8.Og....'
  20 13 01 03 80 34 20 78 ea 9e f5 a6 56 4b 9a 25 ' ....4 x....VK.%'
  12 50 54 bf ef 80 81 c0 81 80 90 40 8b c0 95 00 '.PT........@....'
  a9 40 b3 00 d1 00 28 3c 80 a0 70 b0 23 40 30 20 '.@....(<..p.#@0 '
  36 00 06 44 21 00 00 1a 00 00 00 fd 00 32 4c 1a '6..D!........2L.'
  52 11 00 0a 20 20 20 20 20 20 00 00 00 fc 00 45 'R...      .....E'
  41 32 34 31 57 4d 0a 20 20 20 20 20 00 00 00 ff 'A241WM.     ....'
  00 39 38 31 30 31 36 33 36 4e 42 0a 20 20 01 71 '.98101636NB.  .q'
Checksum: 0x71

----------------

Block 46, Unknown EDID Extension Block 0x00:
  00 ff ff ff ff ff ff 00 38 a3 4f 67 01 01 01 01 '........8.Og....'
  20 13 01 03 80 34 20 78 ea 9e f5 a6 56 4b 9a 25 ' ....4 x....VK.%'
  12 50 54 bf ef 80 81 c0 81 80 90 40 8b c0 95 00 '.PT........@....'
  a9 40 b3 00 d1 00 28 3c 80 a0 70 b0 23 40 30 20 '.@....(<..p.#@0 '
  36 00 06 44 21 00 00 1a 00 00 00 fd 00 32 4c 1a '6..D!........2L.'
  52 11 00 0a 20 20 20 20 20 20 00 00 00 fc 00 45 'R...      .....E'
  41 32 34 31 57 4d 0a 20 20 20 20 20 00 00 00 ff 'A241WM.     ....'
  00 39 38 31 30 31 36 33 36 4e 42 0a 20 20 01 71 '.98101636NB.  .q'
Checksum: 0x71

----------------

Warnings:

Block 0, Base EDID:
  Standard Timings: Standard Timing 1360x765 has a dubious odd vertical resolution.

Failures:

Block 1, Base EDID:
  Unknown Extension Block.
Block 2, Base EDID:
  Unknown Extension Block.
Block 3, Base EDID:
  Unknown Extension Block.
Block 4, Base EDID:
  Unknown Extension Block.
Block 5, Base EDID:
  Unknown Extension Block.
Block 6, Base EDID:
  Unknown Extension Block.
Block 7, Base EDID:
  Unknown Extension Block.
Block 8, Base EDID:
  Unknown Extension Block.
Block 9, Base EDID:
  Unknown Extension Block.
Block 10, Base EDID:
  Unknown Extension Block.
Block 11, Base EDID:
  Unknown Extension Block.
Block 12, Base EDID:
  Unknown Extension Block.
Block 13, Base EDID:
  Unknown Extension Block.
Block 14, Base EDID:
  Unknown Extension Block.
Block 15, Base EDID:
  Unknown Extension Block.
Block 16, Base EDID:
  Unknown Extension Block.
Block 17, Base EDID:
  Unknown Extension Block.
Block 18, Base EDID:
  Unknown Extension Block.
Block 19, Base EDID:
  Unknown Extension Block.
Block 20, Base EDID:
  Unknown Extension Block.
Block 21, Base EDID:
  Unknown Extension Block.
Block 22, Base EDID:
  Unknown Extension Block.
Block 23, Base EDID:
  Unknown Extension Block.
Block 24, Base EDID:
  Unknown Extension Block.
Block 25, Base EDID:
  Unknown Extension Block.
Block 26, Base EDID:
  Unknown Extension Block.
Block 27, Base EDID:
  Unknown Extension Block.
Block 28, Base EDID:
  Unknown Extension Block.
Block 29, Base EDID:
  Unknown Extension Block.
Block 30, Base EDID:
  Unknown Extension Block.
Block 31, Base EDID:
  Unknown Extension Block.
Block 32, Base EDID:
  Unknown Extension Block.
Block 33, Base EDID:
  Unknown Extension Block.
Block 34, Base EDID:
  Unknown Extension Block.
Block 35, Base EDID:
  Unknown Extension Block.
Block 36, Base EDID:
  Unknown Extension Block.
Block 37, Base EDID:
  Unknown Extension Block.
Block 38, Base EDID:
  Unknown Extension Block.
Block 39, Base EDID:
  Unknown Extension Block.
Block 40, Base EDID:
  Unknown Extension Block.
Block 41, Base EDID:
  Unknown Extension Block.
Block 42, Base EDID:
  Unknown Extension Block.
Block 43, Base EDID:
  Unknown Extension Block.
Block 44, Base EDID:
  Unknown Extension Block.
Block 45, Base EDID:
  Unknown Extension Block.
Block 46, Base EDID:
  Unknown Extension Block.
EDID:
  Base EDID: Some timings are out of range of the Monitor Ranges:
    Maximum Clock: 193.250 MHz (Monitor: 170.000 MHz)
  Base EDID: EDID specified 1 extension block(s), but found 46 extension block(s).
  Base EDID: EDID 1.3 requires a Block Map Extension in Block 1 if there are more than 2 blocks in the EDID.

EDID conformity: FAIL
