
EDID (hex):
00ffffffffffff003669621401000000
0f1e0103812f1a782acf74a755469824
10494b2108008180810081c0a9c09500
010101010101023a801871382d403020
350053502100001e000000fa00010101
0101010101010101010a000000fd003b
3c405313000a202020202020000000fc
0050524f203232582031304d0a200177
02031df44710040203010e0f26080007
097f078301000065030c001000023a80
1871382d40582c4500dc0c1100001e7c
2e90a0601a1e4030203600ba89210000
1a011d007251d01e206e285500dc0c11
00001e8c0ad08a20e02d10103e9600dc
0c1100001e0000000000000000000000
00000000000000000000000000000007

Extracted contents:
header:          00 ff ff ff ff ff ff 00
serial number:   36 69 62 14 01 00 00 00 0f 1e
version:         01 03
basic params:    81 2f 1a 78 2a
chroma info:     cf 74 a7 55 46 98 24 10 49 4b
established:     21 08 00
standard:        81 80 81 00 81 c0 a9 c0 95 00 01 01 01 01 01 01
descriptor 1:    02 3a 80 18 71 38 2d 40 30 20 35 00 53 50 21 00 00 1e
descriptor 2:    00 00 00 fa 00 01 01 01 01 01 01 01 01 01 01 01 01 0a
descriptor 3:    00 00 00 fd 00 3b 3c 40 53 13 00 0a 20 20 20 20 20 20
descriptor 4:    00 00 00 fc 00 50 52 4f 20 32 32 58 20 31 30 4d 0a 20
extensions:      01
checksum:        77

EDID version: 1.3
Manufacturer: MSI Model 1462 Serial Number --
Made in week 15 of 2020
Digital display
DFP 1.x compatible TMDS
Maximum image size: 47 cm x 26 cm
Gamma: 2.20
DPMS levels: Off
RGB color display
First detailed timing is preferred timing
Display x,y Chromaticity:
  Red:   0.6552, 0.3320
  Green: 0.2763, 0.5966
  Blue:  0.1416, 0.0654
  White: 0.2861, 0.2929
Established timings supported:
  640x480@60Hz 4:3 HorFreq: 31469 Hz Clock: 25.175 MHz
  800x600@60Hz 4:3 HorFreq: 37900 Hz Clock: 40.000 MHz
  1024x768@60Hz 4:3 HorFreq: 48400 Hz Clock: 65.000 MHz
Standard timings supported:
  1280x1024@60Hz 5:4 HorFreq: 64000 Hz Clock: 108.000 MHz
  1280x800@60Hz 16:10
  1280x720@60Hz 16:9
  1600x900@60Hz 16:9
  1440x900@60Hz 16:10 HorFreq: 55500 Hz Clock: 88.750 MHz
Detailed mode: Clock 148.500 MHz, 595 mm x 336 mm
               1920 1968 2000 2200 hborder 0
               1080 1083 1088 1125 vborder 0
               +hsync +vsync 
               VertFreq: 60 Hz, HorFreq: 67500 Hz
More standard timings:
Monitor ranges (GTF): 59-60Hz V, 64-83kHz H, max dotclock 190MHz
Monitor name: PRO 22X 10M
Has 1 extension blocks
Checksum: 0x77 (valid)

CTA extension block
Extension version: 3
25 bytes of CTA data
  Video data block
    VIC  16 1920x1080@60Hz 16:9  HorFreq: 67500 Hz Clock: 148.500 MHz
    VIC   4 1280x720@60Hz 16:9  HorFreq: 45000 Hz Clock: 74.250 MHz
    VIC   2 720x480@60Hz 4:3  HorFreq: 31469 Hz Clock: 27.000 MHz
    VIC   3 720x480@60Hz 16:9  HorFreq: 31469 Hz Clock: 27.000 MHz
    VIC   1 640x480@60Hz 4:3  HorFreq: 31469 Hz Clock: 25.175 MHz
    VIC  14 1440x480@60Hz 4:3  HorFreq: 31469 Hz Clock: 54.000 MHz
    VIC  15 1440x480@60Hz 16:9  HorFreq: 31469 Hz Clock: 54.000 MHz
  Audio data block
    Linear PCM, max channels 1
      Supported sample rates (kHz):
      Supported sample sizes (bits): 24 20 16
    Linear PCM, max channels 2
      Supported sample rates (kHz): 192 176.4 96 88.2 48 44.1 32
      Supported sample sizes (bits): 24 20 16
  Speaker allocation data block
    Speaker map:
      FL/FR - Front Left/Right
  Vendor-specific data block, OUI 000c03 (HDMI)
    Source physical address 1.0.0.0
Underscans PC formats by default
Basic audio support
Supports YCbCr 4:4:4
Supports YCbCr 4:2:2
4 native detailed modes
Detailed mode: Clock 148.500 MHz, 476 mm x 268 mm
               1920 2008 2052 2200 hborder 0
               1080 1084 1089 1125 vborder 0
               +hsync +vsync 
               VertFreq: 60 Hz, HorFreq: 67500 Hz
Detailed mode: Clock 119.000 MHz, 698 mm x 393 mm
               1680 1728 1760 1840 hborder 0
               1050 1053 1059 1080 vborder 0
               +hsync -vsync 
               VertFreq: 59 Hz, HorFreq: 64673 Hz
Detailed mode: Clock 74.250 MHz, 476 mm x 268 mm
               1280 1390 1430 1650 hborder 0
                720  725  730  750 vborder 0
               +hsync +vsync 
               VertFreq: 60 Hz, HorFreq: 45000 Hz
Detailed mode: Clock 27.000 MHz, 476 mm x 268 mm
                720  736  798  858 hborder 0
                480  489  495  525 vborder 0
               +hsync +vsync 
               VertFreq: 59 Hz, HorFreq: 31468 Hz
Checksum: 0x7 (valid)

One or more of the timings is out of range of the Monitor Ranges:
  Vertical Freq: 59 - 60 Hz
  Horizontal Freq: 31468 - 67500 Hz
  Maximum Clock: 148.500 MHz
