edid-decode (hex):

00 ff ff ff ff ff ff 00 39 e4 01 00 01 00 00 00
28 15 01 03 80 30 1b 78 b2 92 c5 a2 59 55 9e 27
0e 50 54 00 00 00 01 01 01 01 01 01 01 01 01 01
01 01 01 01 01 01 98 3a 80 18 71 38 37 40 30 20
3c 00 15 38 21 00 00 18 00 00 00 ff 00 4e 4f 44
30 30 30 35 0a 0a 0a 0a 0a 0a 00 00 00 10 00 33
4e 4f 44 20 4d 6f 6e 69 74 6f 72 0a 00 00 00 fd
00 32 4b 3c 50 10 00 0a 20 20 20 20 20 20 01 ef

00 00 00 00 00 00 00 00 00 00 00 00 00 00 00 00
00 00 00 00 00 00 00 00 00 00 00 00 00 00 00 00
00 00 00 00 00 00 00 00 00 00 00 00 00 00 00 00
00 00 00 00 00 00 00 00 00 00 00 00 00 00 00 00
00 00 00 00 00 00 00 00 00 00 00 00 00 00 00 00
00 00 00 00 00 00 00 00 00 00 00 00 00 00 00 00
00 00 00 00 00 00 00 00 00 00 00 00 00 00 00 00
00 00 00 00 00 00 00 00 00 00 00 00 00 00 00 00

----------------

Block 0, Base EDID:
  EDID Structure Version & Revision: 1.3
  Vendor & Product Identification:
    Manufacturer: NOD
    Model: 1
    Serial Number: ...
    Made in: week 40 of 2011
  Basic Display Parameters & Features:
    Digital display
    Maximum image size: 48 cm x 27 cm
    Gamma: 2.20
    DPMS levels: Standby Off
    Non-RGB color display
    First detailed timing is preferred timing
  Color Characteristics:
    Red  : 0.6347, 0.3486
    Green: 0.3320, 0.6191
    Blue : 0.1552, 0.0546
    White: 0.3134, 0.3291
  Established Timings I & II: none
  Standard Timings: none
  Detailed Timing Descriptors:
    DTD 1:  1920x1080   60.072 Hz  16:9    68.182 kHz 150.000 MHz (533 mm x 312 mm)
                 Hfront   48 Hsync  32 Hback 200 Hpol N
                 Vfront    3 Vsync  12 Vback  40 Vpol N
    Display Product Serial Number: ...
    Dummy Descriptor:
  Display Range Limits:
    Monitor ranges (GTF): 50-75 Hz V, 60-80 kHz H, max dotclock 160 MHz
  Extension blocks: 1
Checksum: 0xef

----------------

Block 1, Base EDID:
Base EDID
  00 00 00 00 00 00 00 00 00 00 00 00 00 00 00 00 '................'
  00 00 00 00 00 00 00 00 00 00 00 00 00 00 00 00 '................'
  00 00 00 00 00 00 00 00 00 00 00 00 00 00 00 00 '................'
  00 00 00 00 00 00 00 00 00 00 00 00 00 00 00 00 '................'
  00 00 00 00 00 00 00 00 00 00 00 00 00 00 00 00 '................'
  00 00 00 00 00 00 00 00 00 00 00 00 00 00 00 00 '................'
  00 00 00 00 00 00 00 00 00 00 00 00 00 00 00 00 '................'
  00 00 00 00 00 00 00 00 00 00 00 00 00 00 00 00 '................'
Checksum: 0x0
