
EDID (hex):
00ffffffffffff0006afed2100000000
001b0104952213780305b59459599228
1d505400000001010101010101010101
010101010101143780b4703824406c30
aa0058c110000018b82480b470382440
6c30aa0058c110000018000000000000
00000000000000000000000000000002
001040ff0f3c7d0b10227d202020006b

Extracted contents:
header:          00 ff ff ff ff ff ff 00
serial number:   06 af ed 21 00 00 00 00 00 1b
version:         01 04
basic params:    95 22 13 78 03
chroma info:     05 b5 94 59 59 92 28 1d 50 54
established:     00 00 00
standard:        01 01 01 01 01 01 01 01 01 01 01 01 01 01 01 01
descriptor 1:    14 37 80 b4 70 38 24 40 6c 30 aa 00 58 c1 10 00 00 18
descriptor 2:    b8 24 80 b4 70 38 24 40 6c 30 aa 00 58 c1 10 00 00 18
descriptor 3:    00 00 00 00 00 00 00 00 00 00 00 00 00 00 00 00 00 00
descriptor 4:    00 00 00 02 00 10 40 ff 0f 3c 7d 0b 10 22 7d 20 20 20
extensions:      00
checksum:        6b

EDID version: 1.4
Manufacturer: AUO Model 21ed Serial Number --
Made in year 2017
Digital display
6 bits per primary color channel
DisplayPort interface
Maximum image size: 34 cm x 19 cm
Gamma: 2.20
Supported color formats: RGB 4:4:4
First detailed timing includes the native pixel format and preferred refresh rate
Display is continuous frequency
Display x,y Chromaticity:
  Red:   0.5781, 0.3476
  Green: 0.3486, 0.5712
  Blue:  0.1582, 0.1162
  White: 0.3134, 0.3291
Established timings supported:
Standard timings supported:
Detailed mode: Clock 141.000 MHz, 344 mm x 193 mm
               1920 2028 2076 2100 hborder 0
               1080 1090 1100 1116 vborder 0
               -hsync -vsync 
               VertFreq: 60 Hz, HorFreq: 67142 Hz
Detailed mode: Clock 94.000 MHz, 344 mm x 193 mm
               1920 2028 2076 2100 hborder 0
               1080 1090 1100 1116 vborder 0
               -hsync -vsync 
               VertFreq: 40 Hz, HorFreq: 44761 Hz
Manufacturer-specified data, tag 0
Manufacturer-specified data, tag 2
Checksum: 0x6b (valid)
EDID block does NOT conform to EDID 1.4!
	Missing name descriptor
	Missing monitor ranges
