
EDID (hex):
00ffffffffffff0006afed2100000000
041501049022137802e2b59e59529926
1e505400000001010101010101010101
010101010101783780cc703822403064
aa0058c210000018fb2480cc70382240
3064aa0058c210000018000000fe0041
554f0a202020202020202020000000fe
004231353648573032205631200a0040

Extracted contents:
header:          00 ff ff ff ff ff ff 00
serial number:   06 af ed 21 00 00 00 00 04 15
version:         01 04
basic params:    90 22 13 78 02
chroma info:     e2 b5 9e 59 52 99 26 1e 50 54
established:     00 00 00
standard:        01 01 01 01 01 01 01 01 01 01 01 01 01 01 01 01
descriptor 1:    78 37 80 cc 70 38 22 40 30 64 aa 00 58 c2 10 00 00 18
descriptor 2:    fb 24 80 cc 70 38 22 40 30 64 aa 00 58 c2 10 00 00 18
descriptor 3:    00 00 00 fe 00 41 55 4f 0a 20 20 20 20 20 20 20 20 20
descriptor 4:    00 00 00 fe 00 42 31 35 36 48 57 30 32 20 56 31 20 0a
extensions:      00
checksum:        40

EDID version: 1.4
Manufacturer: AUO Model 21ed Serial Number --
Made in week 4 of 2011
Digital display
6 bits per primary color channel
Digital interface is not defined
Maximum image size: 34 cm x 19 cm
Gamma: 2.20
Supported color formats: RGB 4:4:4
First detailed timing includes the native pixel format and preferred refresh rate
Display x,y Chromaticity:
  Red:   0.6201, 0.3496
  Green: 0.3203, 0.5996
  Blue:  0.1503, 0.1201
  White: 0.3134, 0.3291
Established timings supported:
Standard timings supported:
Detailed mode: Clock 142.000 MHz, 344 mm x 194 mm
               1920 1968 2068 2124 hborder 0
               1080 1090 1100 1114 vborder 0
               -hsync -vsync 
               VertFreq: 60 Hz, HorFreq: 66854 Hz
Detailed mode: Clock 94.670 MHz, 344 mm x 194 mm
               1920 1968 2068 2124 hborder 0
               1080 1090 1100 1114 vborder 0
               -hsync -vsync 
               VertFreq: 40 Hz, HorFreq: 44571 Hz
ASCII string: AUO
ASCII string: B156HW02 V1 
Checksum: 0x40 (valid)
EDID block does NOT conform to EDID 1.4!
	Missing name descriptor
	Missing monitor ranges
