
EDID (hex):
00ffffffffffff000ed4010000000000
0a140103080000780a701ba3554a9c25
10474aafce0001010101010101010101
010101010101662150b051001b304070
360000000000001e0e1f008051001e30
4080370020560000001c000000fd0032
4c1e410b000a202020202020000000fc
005048494c434f0a202020202020008b

Extracted contents:
header:          00 ff ff ff ff ff ff 00
serial number:   0e d4 01 00 00 00 00 00 0a 14
version:         01 03
basic params:    08 00 00 78 0a
chroma info:     70 1b a3 55 4a 9c 25 10 47 4a
established:     af ce 00
standard:        01 01 01 01 01 01 01 01 01 01 01 01 01 01 01 01
descriptor 1:    66 21 50 b0 51 00 1b 30 40 70 36 00 00 00 00 00 00 1e
descriptor 2:    0e 1f 00 80 51 00 1e 30 40 80 37 00 20 56 00 00 00 1c
descriptor 3:    00 00 00 fd 00 32 4c 1e 41 0b 00 0a 20 20 20 20 20 20
descriptor 4:    00 00 00 fc 00 50 48 49 4c 43 4f 0a 20 20 20 20 20 20
extensions:      00
checksum:        8b

EDID version: 1.3
Manufacturer: CVT Model 1 Serial Number --
Made in week 10 of 2010
Analog display, Input voltage level: 0.7/0.3 V
Sync: Separate 
Image size is variable
Gamma: 2.20
RGB color display
First detailed timing is preferred timing
Display x,y Chromaticity:
  Red:   0.6376, 0.3349
  Green: 0.2890, 0.6093
  Blue:  0.1445, 0.0634
  White: 0.2792, 0.2919
Established timings supported:
  720x400@70Hz 9:5 HorFreq: 31469 Hz Clock: 28.320 MHz
  640x480@60Hz 4:3 HorFreq: 31469 Hz Clock: 25.175 MHz
  640x480@72Hz 4:3 HorFreq: 37900 Hz Clock: 31.500 MHz
  640x480@75Hz 4:3 HorFreq: 37500 Hz Clock: 31.500 MHz
  800x600@56Hz 4:3 HorFreq: 35200 Hz Clock: 36.000 MHz
  800x600@60Hz 4:3 HorFreq: 37900 Hz Clock: 40.000 MHz
  800x600@72Hz 4:3 HorFreq: 48100 Hz Clock: 50.000 MHz
  800x600@75Hz 4:3 HorFreq: 46900 Hz Clock: 49.500 MHz
  1024x768@60Hz 4:3 HorFreq: 48400 Hz Clock: 65.000 MHz
  1024x768@70Hz 4:3 HorFreq: 56500 Hz Clock: 75.000 MHz
  1024x768@75Hz 4:3 HorFreq: 60000 Hz Clock: 78.750 MHz
Standard timings supported:
Detailed mode: Clock 85.500 MHz, 0 mm x 0 mm
               1360 1424 1536 1792 hborder 0
                768  771  777  795 vborder 0
               +hsync +vsync 
               VertFreq: 60 Hz, HorFreq: 47712 Hz
Detailed mode: Clock 79.500 MHz, 32 mm x 86 mm
               1280 1344 1472 1664 hborder 0
                768  771  778  798 vborder 0
               -hsync +vsync 
               VertFreq: 59 Hz, HorFreq: 47776 Hz
Monitor ranges (GTF): 50-76Hz V, 30-65kHz H, max dotclock 110MHz
Monitor name: PHILCO
Checksum: 0x8b (valid)
