
EDID (hex):
00ffffffffffff00061044a000000000
241d0104b5221678020f91ae5243b026
0d505400000001010101010101010101
010101010101e7910050c08037700820
980859d71000001a000000fc00436f6c
6f72204c43440a202020000000100000
00000000000000000000000000000010
0000000000000000000000000000019b
70127903007f813ffa10000301180f28
17000000000000000000000000000000
4c503136305754312d534a41360a2000
46305930353036303033303037434d41
390a20202020207f8129fa1000020100
1100000290034504400598076f09f30d
69122d18c421e52e97404959077bb5ac
6ff1120000000000000000000000c690

Extracted contents:
header:          00 ff ff ff ff ff ff 00
serial number:   06 10 44 a0 00 00 00 00 24 1d
version:         01 04
basic params:    b5 22 16 78 02
chroma info:     0f 91 ae 52 43 b0 26 0d 50 54
established:     00 00 00
standard:        01 01 01 01 01 01 01 01 01 01 01 01 01 01 01 01
descriptor 1:    e7 91 00 50 c0 80 37 70 08 20 98 08 59 d7 10 00 00 1a
descriptor 2:    00 00 00 fc 00 43 6f 6c 6f 72 20 4c 43 44 0a 20 20 20
descriptor 3:    00 00 00 10 00 00 00 00 00 00 00 00 00 00 00 00 00 00
descriptor 4:    00 00 00 10 00 00 00 00 00 00 00 00 00 00 00 00 00 00
extensions:      01
checksum:        9b

EDID version: 1.4
Manufacturer: APP Model a044 Serial Number --
Made in week 36 of 2019
Digital display
10 bits per primary color channel
DisplayPort interface
Maximum image size: 34 cm x 22 cm
Gamma: 2.20
Supported color formats: RGB 4:4:4
First detailed timing includes the native pixel format and preferred refresh rate
Display x,y Chromaticity:
  Red:   0.6796, 0.3203
  Green: 0.2646, 0.6904
  Blue:  0.1503, 0.0517
  White: 0.3125, 0.3291
Established timings supported:
Standard timings supported:
Detailed mode: Clock 373.510 MHz, 345 mm x 215 mm
               3072 3080 3112 3152 hborder 0
               1920 1961 1969 1975 vborder 0
               +hsync -vsync 
               VertFreq: 59 Hz, HorFreq: 118499 Hz
Monitor name: Color LCD
Dummy block
Dummy block
Has 1 extension blocks
Checksum: 0x9b (valid)

DisplayID extension block
Extension version: 18
Length 121, version 18, extension count 0
Checksum: 0xc6 (valid)
Unknown displayid data block 0x7f
Unknown displayid data block 0x7f

	Missing monitor ranges
EDID block does not conform at all!
	Has 1694498816 nonconformant extension block(s)
