
EDID (hex):
00ffffffffffff000e14bf1400000000
1a140103802213780a4e4d9e57549126
0f505400000001010101010101010101
010101010101781d56c2500026303b27
5a0058c11000001a781d56c250002630
3b275a0058c11000001a000000fe0047
3532364a803135365741312000000000
000c12171e3d67a0ff01010a20200093

Extracted contents:
header:          00 ff ff ff ff ff ff 00
serial number:   0e 14 bf 14 00 00 00 00 1a 14
version:         01 03
basic params:    80 22 13 78 0a
chroma info:     4e 4d 9e 57 54 91 26 0f 50 54
established:     00 00 00
standard:        01 01 01 01 01 01 01 01 01 01 01 01 01 01 01 01
descriptor 1:    78 1d 56 c2 50 00 26 30 3b 27 5a 00 58 c1 10 00 00 1a
descriptor 2:    78 1d 56 c2 50 00 26 30 3b 27 5a 00 58 c1 10 00 00 1a
descriptor 3:    00 00 00 fe 00 47 35 32 36 4a 80 31 35 36 57 41 31 20
descriptor 4:    00 00 00 00 00 0c 12 17 1e 3d 67 a0 ff 01 01 0a 20 20
extensions:      00
checksum:        93

EDID version: 1.3
Manufacturer: CPT Model 14bf Serial Number --
Made in week 26 of 2010
Digital display
Maximum image size: 34 cm x 19 cm
Gamma: 2.20
RGB color display
First detailed timing is preferred timing
Display x,y Chromaticity:
  Red:   0.6181, 0.3398
  Green: 0.3310, 0.5683
  Blue:  0.1494, 0.0585
  White: 0.3154, 0.3291
Established timings supported:
Standard timings supported:
Detailed mode: Clock 75.440 MHz, 344 mm x 193 mm
               1366 1425 1464 1560 hborder 0
                768  773  783  806 vborder 0
               +hsync -vsync 
               VertFreq: 59 Hz, HorFreq: 48358 Hz
Detailed mode: Clock 75.440 MHz, 344 mm x 193 mm
               1366 1425 1464 1560 hborder 0
                768  773  783  806 vborder 0
               +hsync -vsync 
               VertFreq: 59 Hz, HorFreq: 48358 Hz
ASCII string: G526J
Manufacturer-specified data, tag 0
Checksum: 0x93 (valid)
EDID block does NOT conform to EDID 1.3!
	Missing name descriptor
	Missing monitor ranges
	Detailed block string not properly terminated


