edid-decode (hex):

00 ff ff ff ff ff ff 00 4c 2d 25 71 44 4d 4b 34
08 1f 01 03 0e 3c 22 78 2a 52 95 a5 56 54 9d 25
0e 50 54 33 0c 00 81 c0 81 00 81 80 95 00 a9 c0
b3 00 01 01 01 01 02 3a 80 18 71 38 2d 40 58 2c
45 00 56 50 21 00 00 1e 00 00 00 fd 00 38 47 1e
46 11 00 0a 20 20 20 20 20 20 00 00 00 fc 00 53
32 37 52 33 35 41 0a 20 20 20 20 20 00 00 00 ff
00 48 34 55 52 32 30 32 39 37 35 0a 20 20 00 f8

00 ff ff ff ff ff ff 00 4c 2d 25 71 44 4d 4b 34
08 1f 01 03 0e 3c 22 78 2a 52 95 a5 56 54 9d 25
0e 50 54 33 0c 00 81 c0 81 00 81 80 95 00 a9 c0
b3 00 01 01 01 01 02 3a 80 18 71 38 2d 40 58 2c
45 00 56 50 21 00 00 1e 00 00 00 fd 00 38 47 1e
46 11 00 0a 20 20 20 20 20 20 00 00 00 fc 00 53
32 37 52 33 35 41 0a 20 20 20 20 20 00 00 00 ff
00 48 34 55 52 32 30 32 39 37 35 0a 20 20 00 f8

----------------

Block 0, Base EDID:
  EDID Structure Version & Revision: 1.3
  Vendor & Product Identification:
    Manufacturer: SAM
    Model: 28965
    Serial Number: ...
    Made in: week 8 of 2021
  Basic Display Parameters & Features:
    Analog display
    Signal Level Standard: 0.700 : 0.300 : 1.000 V p-p
    Blank level equals black level
    Sync: Separate Composite SyncOnGreen
    Maximum image size: 60 cm x 34 cm
    Gamma: 2.20
    DPMS levels: Off
    RGB color display
    First detailed timing is the preferred timing
  Color Characteristics:
    Red  : 0.6455, 0.3369
    Green: 0.3281, 0.6152
    Blue : 0.1464, 0.0556
    White: 0.3134, 0.3291
  Established Timings I & II:
    DMT 0x04:   640x480    59.940476 Hz   4:3     31.469 kHz     25.175000 MHz
    Apple   :   640x480    66.666667 Hz   4:3     35.000 kHz     30.240000 MHz
    DMT 0x08:   800x600    56.250000 Hz   4:3     35.156 kHz     36.000000 MHz
    DMT 0x09:   800x600    60.316541 Hz   4:3     37.879 kHz     40.000000 MHz
    DMT 0x10:  1024x768    60.003840 Hz   4:3     48.363 kHz     65.000000 MHz
    DMT 0x11:  1024x768    70.069359 Hz   4:3     56.476 kHz     75.000000 MHz
  Standard Timings:
    DMT 0x55:  1280x720    60.000000 Hz  16:9     45.000 kHz     74.250000 MHz
    DMT 0x1c:  1280x800    59.810326 Hz  16:10    49.702 kHz     83.500000 MHz
    DMT 0x23:  1280x1024   60.019740 Hz   5:4     63.981 kHz    108.000000 MHz
    DMT 0x2f:  1440x900    59.887445 Hz  16:10    55.935 kHz    106.500000 MHz
    DMT 0x53:  1600x900    60.000000 Hz  16:9     60.000 kHz    108.000000 MHz (RB)
    DMT 0x3a:  1680x1050   59.954250 Hz  16:10    65.290 kHz    146.250000 MHz
  Detailed Timing Descriptors:
    DTD 1:  1920x1080   60.000000 Hz  16:9     67.500 kHz    148.500000 MHz (598 mm x 336 mm)
                 Hfront   88 Hsync  44 Hback  148 Hpol P
                 Vfront    4 Vsync   5 Vback   36 Vpol P
    Display Range Limits:
      Monitor ranges (GTF): 56-71 Hz V, 30-70 kHz H, max dotclock 170 MHz
    Display Product Name: 'S27R35A'
    Display Product Serial Number: ...
Checksum: 0xf8

----------------

Block 1, Unknown EDID Extension Block 0x00:
  00 ff ff ff ff ff ff 00 4c 2d 25 71 44 4d 4b 34 '........L-%qDMK4'
  08 1f 01 03 0e 3c 22 78 2a 52 95 a5 56 54 9d 25 '.....<"x*R..VT.%'
  0e 50 54 33 0c 00 81 c0 81 00 81 80 95 00 a9 c0 '.PT3............'
  b3 00 01 01 01 01 02 3a 80 18 71 38 2d 40 58 2c '.......:..q8-@X,'
  45 00 56 50 21 00 00 1e 00 00 00 fd 00 38 47 1e 'E.VP!........8G.'
  46 11 00 0a 20 20 20 20 20 20 00 00 00 fc 00 53 'F...      .....S'
  32 37 52 33 35 41 0a 20 20 20 20 20 00 00 00 ff '27R35A.     ....'
  00 48 34 55 52 32 30 32 39 37 35 0a 20 20 00 f8 '.H4UR202975.  ..'
Checksum: 0xf8

----------------

Failures:

Block 1, Base EDID:
  Unknown Extension Block.
EDID:
  Base EDID: EDID specified 0 extension block(s), but found 1 extension block(s).

EDID conformity: FAIL
